
========================================================================

** ELF Header Information

    File Name: .\obj\GPIO_OutputInput.axf

    Machine class: ELFCLASS32 (32-bit)
    Data encoding: ELFDATA2LSB (Little endian)
    Header version: EV_CURRENT (Current version)
    Operating System ABI: none
    ABI Version: 0
    File Type: ET_EXEC (Executable) (2)
    Machine: EM_ARM (ARM)

    Image Entry point: 0x0000012d
    Flags: EF_ARM_HASENTRY + EF_ARM_ABI_FLOAT_SOFT (0x05000202)

    ARM ELF revision: 5 (ABI version 2)

    Conforms to Soft float procedure-call standard

    Built with
    Component: ARM Compiler 5.06 update 6 (build 750) Tool: armasm [4d35ec]
    Component: ARM Compiler 5.06 update 6 (build 750) Tool: armlink [4d35ed]

    Header size: 52 bytes (0x34)
    Program header entry size: 32 bytes (0x20)
    Section header entry size: 40 bytes (0x28)

    Program header entries: 1
    Section header entries: 16

    Program header offset: 119892 (0x0001d454)
    Section header offset: 119924 (0x0001d474)

    Section header string table index: 15

========================================================================

** Program header #0 (PT_LOAD) [PF_X + PF_W + PF_R + PF_ARM_ENTRY]
    Size : 9224 bytes (8120 bytes in file)
    Virtual address: 0x00000000 (Alignment 8)


========================================================================

** Section #1 'ER_RO' (SHT_PROGBITS) [SHF_ALLOC + SHF_EXECINSTR]
    Size   : 8072 bytes (alignment 8)
    Address: 0x00000000

    $d.realdata
    RESET
    __Vectors
        0x00000000:    20000480    ...     DCD    536872064
        0x00000004:    0000012d    -...    DCD    301
        0x00000008:    0000014d    M...    DCD    333
        0x0000000c:    000000d5    ....    DCD    213
        0x00000010:    00000000    ....    DCD    0
        0x00000014:    00000000    ....    DCD    0
        0x00000018:    00000000    ....    DCD    0
        0x0000001c:    00000000    ....    DCD    0
        0x00000020:    00000000    ....    DCD    0
        0x00000024:    00000000    ....    DCD    0
        0x00000028:    00000000    ....    DCD    0
        0x0000002c:    00000151    Q...    DCD    337
        0x00000030:    00000000    ....    DCD    0
        0x00000034:    00000000    ....    DCD    0
        0x00000038:    00000153    S...    DCD    339
        0x0000003c:    00000155    U...    DCD    341
        0x00000040:    00000157    W...    DCD    343
        0x00000044:    00000157    W...    DCD    343
        0x00000048:    00000157    W...    DCD    343
        0x0000004c:    00000157    W...    DCD    343
        0x00000050:    00000157    W...    DCD    343
        0x00000054:    00000157    W...    DCD    343
        0x00000058:    00000157    W...    DCD    343
        0x0000005c:    00000157    W...    DCD    343
        0x00000060:    00000157    W...    DCD    343
        0x00000064:    00000157    W...    DCD    343
        0x00000068:    00000157    W...    DCD    343
        0x0000006c:    00000157    W...    DCD    343
        0x00000070:    00000157    W...    DCD    343
        0x00000074:    00000157    W...    DCD    343
        0x00000078:    00000157    W...    DCD    343
        0x0000007c:    00000157    W...    DCD    343
        0x00000080:    00000157    W...    DCD    343
        0x00000084:    00000157    W...    DCD    343
        0x00000088:    00000971    q...    DCD    2417
        0x0000008c:    00000157    W...    DCD    343
        0x00000090:    00000157    W...    DCD    343
        0x00000094:    00000157    W...    DCD    343
        0x00000098:    00000157    W...    DCD    343
        0x0000009c:    00000157    W...    DCD    343
        0x000000a0:    00000157    W...    DCD    343
        0x000000a4:    00000157    W...    DCD    343
        0x000000a8:    00000157    W...    DCD    343
        0x000000ac:    00000157    W...    DCD    343
        0x000000b0:    00000157    W...    DCD    343
        0x000000b4:    00000157    W...    DCD    343
        0x000000b8:    00000157    W...    DCD    343
        0x000000bc:    00000157    W...    DCD    343
    $t
    .ARM.Collect$$$$00000000
    .ARM.Collect$$$$00000001
    __main
    _main_stk
        0x000000c0:    4803        .H      LDR      r0,__lit__00000000 ; [0xd0] = 0x20000480
        0x000000c2:    4685        .F      MOV      sp,r0
    .ARM.Collect$$$$00000004
    _main_scatterload
        0x000000c4:    f000fb92    ....    BL       __scatterload ; 0x7ec
    .ARM.Collect$$$$00000008
    .ARM.Collect$$$$0000000A
    .ARM.Collect$$$$0000000B
    __main_after_scatterload
    _main_clock
    _main_cpp_init
    _main_init
        0x000000c8:    4800        .H      LDR      r0,[pc,#0] ; [0xcc] = 0x189d
        0x000000ca:    4700        .G      BX       r0
    $d
        0x000000cc:    0000189d    ....    DCD    6301
    .ARM.Collect$$$$00002712
    __lit__00000000
    .ARM.Collect$$$$0000000D
    .ARM.Collect$$$$0000000F
    __rt_final_cpp
    __rt_final_exit
        0x000000d0:    20000480    ...     DCD    536872064
    $t
    .emb_text
    HardFault_Handler
        0x000000d4:    4670        pF      MOV      r0,lr
        0x000000d6:    0740        @.      LSLS     r0,r0,#29
        0x000000d8:    d402        ..      BMI      0xe0 ; HardFault_Handler + 12
        0x000000da:    f3ef8008    ....    MRS      r0,MSP
        0x000000de:    e001        ..      B        0xe4 ; HardFault_Handler + 16
        0x000000e0:    f3ef8009    ....    MRS      r0,PSP
        0x000000e4:    6981        .i      LDR      r1,[r0,#0x18]
        0x000000e6:    880b        ..      LDRH     r3,[r1,#0]
        0x000000e8:    4a09        .J      LDR      r2,[pc,#36] ; [0x110] = 0xbeab
        0x000000ea:    4293        .B      CMP      r3,r2
        0x000000ec:    d102        ..      BNE      0xf4 ; HardFault_Handler + 32
        0x000000ee:    3104        .1      ADDS     r1,#4
        0x000000f0:    6181        .a      STR      r1,[r0,#0x18]
        0x000000f2:    4770        pG      BX       lr
        0x000000f4:    2004        .       MOVS     r0,#4
        0x000000f6:    4671        qF      MOV      r1,lr
        0x000000f8:    4208        .B      TST      r0,r1
        0x000000fa:    d002        ..      BEQ      0x102 ; HardFault_Handler + 46
        0x000000fc:    f3ef8009    ....    MRS      r0,PSP
        0x00000100:    e001        ..      B        0x106 ; HardFault_Handler + 50
        0x00000102:    f3ef8008    ....    MRS      r0,MSP
        0x00000106:    4671        qF      MOV      r1,lr
        0x00000108:    4a02        .J      LDR      r2,[pc,#8] ; [0x114] = 0x949
        0x0000010a:    4710        .G      BX       r2
        0x0000010c:    e7fe        ..      B        0x10c ; HardFault_Handler + 56
    $d
        0x0000010e:    0000        ..      DCW    0
        0x00000110:    0000beab    ....    DCD    48811
        0x00000114:    00000949    I...    DCD    2377
    $t
    SH_DoCommand
        0x00000118:    beab        ..      BKPT     #0xab
        0x0000011a:    e001        ..      B        0x120 ; SH_DoCommand + 8
        0x0000011c:    2000        .       MOVS     r0,#0
        0x0000011e:    4770        pG      BX       lr
        0x00000120:    2a00        .*      CMP      r2,#0
        0x00000122:    d000        ..      BEQ      0x126 ; SH_DoCommand + 14
        0x00000124:    6010        .`      STR      r0,[r2,#0]
        0x00000126:    2001        .       MOVS     r0,#1
        0x00000128:    4770        pG      BX       lr
        0x0000012a:    0000        ..      MOVS     r0,r0
    .text
    Reset_Handler
        0x0000012c:    480a        .H      LDR      r0,[pc,#40] ; [0x158] = 0x50000100
        0x0000012e:    490b        .I      LDR      r1,[pc,#44] ; [0x15c] = 0x59
        0x00000130:    6001        .`      STR      r1,[r0,#0]
        0x00000132:    490b        .I      LDR      r1,[pc,#44] ; [0x160] = 0x16
        0x00000134:    6001        .`      STR      r1,[r0,#0]
        0x00000136:    490b        .I      LDR      r1,[pc,#44] ; [0x164] = 0x88
        0x00000138:    6001        .`      STR      r1,[r0,#0]
        0x0000013a:    4a0b        .J      LDR      r2,[pc,#44] ; [0x168] = 0x50000024
        0x0000013c:    490b        .I      LDR      r1,[pc,#44] ; [0x16c] = 0x5aa5
        0x0000013e:    6011        .`      STR      r1,[r2,#0]
        0x00000140:    2100        .!      MOVS     r1,#0
        0x00000142:    6001        .`      STR      r1,[r0,#0]
        0x00000144:    480a        .H      LDR      r0,[pc,#40] ; [0x170] = 0xf15
        0x00000146:    4780        .G      BLX      r0
        0x00000148:    480a        .H      LDR      r0,[pc,#40] ; [0x174] = 0xc1
        0x0000014a:    4700        .G      BX       r0
    NMI_Handler
        0x0000014c:    e7fe        ..      B        NMI_Handler ; 0x14c
        0x0000014e:    e7fe        ..      B        0x14e ; NMI_Handler + 2
    SVC_Handler
        0x00000150:    e7fe        ..      B        SVC_Handler ; 0x150
    PendSV_Handler
        0x00000152:    e7fe        ..      B        PendSV_Handler ; 0x152
    SysTick_Handler
        0x00000154:    e7fe        ..      B        SysTick_Handler ; 0x154
    Default_Handler
    ACMP01_IRQHandler
    ACMP23_IRQHandler
    ADC_IRQHandler
    BOD_IRQHandler
    EINT0_IRQHandler
    EINT1_IRQHandler
    GPIOP0P1_IRQHandler
    GPIOP2P3P4_IRQHandler
    I2C1_IRQHandler
    PWMA_IRQHandler
    PWMB_IRQHandler
    PWRWU_IRQHandler
    RTC_IRQHandler
    SPI0_IRQHandler
    SPI1_IRQHandler
    TMR0_IRQHandler
    TMR1_IRQHandler
    TMR2_IRQHandler
    TMR3_IRQHandler
    UART0_IRQHandler
    UART1_IRQHandler
    WDT_IRQHandler
        0x00000156:    e7fe        ..      B        Default_Handler ; 0x156
    $d
        0x00000158:    50000100    ...P    DCD    1342177536
        0x0000015c:    00000059    Y...    DCD    89
        0x00000160:    00000016    ....    DCD    22
        0x00000164:    00000088    ....    DCD    136
        0x00000168:    50000024    $..P    DCD    1342177316
        0x0000016c:    00005aa5    .Z..    DCD    23205
        0x00000170:    00000f15    ....    DCD    3861
        0x00000174:    000000c1    ....    DCD    193
    $t
    .text
    __aeabi_uidiv
    __aeabi_uidivmod
        0x00000178:    b530        0.      PUSH     {r4,r5,lr}
        0x0000017a:    460b        .F      MOV      r3,r1
        0x0000017c:    4601        .F      MOV      r1,r0
        0x0000017e:    2000        .       MOVS     r0,#0
        0x00000180:    2220         "      MOVS     r2,#0x20
        0x00000182:    2401        .$      MOVS     r4,#1
        0x00000184:    e009        ..      B        0x19a ; __aeabi_uidiv + 34
        0x00000186:    460d        .F      MOV      r5,r1
        0x00000188:    40d5        .@      LSRS     r5,r5,r2
        0x0000018a:    429d        .B      CMP      r5,r3
        0x0000018c:    d305        ..      BCC      0x19a ; __aeabi_uidiv + 34
        0x0000018e:    461d        .F      MOV      r5,r3
        0x00000190:    4095        .@      LSLS     r5,r5,r2
        0x00000192:    1b49        I.      SUBS     r1,r1,r5
        0x00000194:    4625        %F      MOV      r5,r4
        0x00000196:    4095        .@      LSLS     r5,r5,r2
        0x00000198:    1940        @.      ADDS     r0,r0,r5
        0x0000019a:    4615        .F      MOV      r5,r2
        0x0000019c:    1e52        R.      SUBS     r2,r2,#1
        0x0000019e:    2d00        .-      CMP      r5,#0
        0x000001a0:    dcf1        ..      BGT      0x186 ; __aeabi_uidiv + 14
        0x000001a2:    bd30        0.      POP      {r4,r5,pc}
    .text
    __aeabi_idiv
    __aeabi_idivmod
        0x000001a4:    b570        p.      PUSH     {r4-r6,lr}
        0x000001a6:    2400        .$      MOVS     r4,#0
        0x000001a8:    4625        %F      MOV      r5,r4
        0x000001aa:    2800        .(      CMP      r0,#0
        0x000001ac:    da01        ..      BGE      0x1b2 ; __aeabi_idiv + 14
        0x000001ae:    2401        .$      MOVS     r4,#1
        0x000001b0:    4240        @B      RSBS     r0,r0,#0
        0x000001b2:    2900        .)      CMP      r1,#0
        0x000001b4:    da01        ..      BGE      0x1ba ; __aeabi_idiv + 22
        0x000001b6:    2501        .%      MOVS     r5,#1
        0x000001b8:    4249        IB      RSBS     r1,r1,#0
        0x000001ba:    f7ffffdd    ....    BL       __aeabi_uidiv ; 0x178
        0x000001be:    42ac        .B      CMP      r4,r5
        0x000001c0:    d000        ..      BEQ      0x1c4 ; __aeabi_idiv + 32
        0x000001c2:    4240        @B      RSBS     r0,r0,#0
        0x000001c4:    2c00        .,      CMP      r4,#0
        0x000001c6:    d000        ..      BEQ      0x1ca ; __aeabi_idiv + 38
        0x000001c8:    4249        IB      RSBS     r1,r1,#0
        0x000001ca:    bd70        p.      POP      {r4-r6,pc}
    .text
    rand
        0x000001cc:    4905        .I      LDR      r1,[pc,#20] ; [0x1e4] = 0x20000028
        0x000001ce:    4a06        .J      LDR      r2,[pc,#24] ; [0x1e8] = 0x41c64e6d
        0x000001d0:    6808        .h      LDR      r0,[r1,#0]
        0x000001d2:    4350        PC      MULS     r0,r2,r0
        0x000001d4:    4a05        .J      LDR      r2,[pc,#20] ; [0x1ec] = 0x3039
        0x000001d6:    1880        ..      ADDS     r0,r0,r2
        0x000001d8:    6008        .`      STR      r0,[r1,#0]
        0x000001da:    0840        @.      LSRS     r0,r0,#1
        0x000001dc:    4770        pG      BX       lr
    srand
        0x000001de:    4901        .I      LDR      r1,[pc,#4] ; [0x1e4] = 0x20000028
        0x000001e0:    6008        .`      STR      r0,[r1,#0]
        0x000001e2:    4770        pG      BX       lr
    $d
        0x000001e4:    20000028    (..     DCD    536870952
        0x000001e8:    41c64e6d    mN.A    DCD    1103515245
        0x000001ec:    00003039    90..    DCD    12345
    $t
    .text
    __aeabi_memcpy
    __aeabi_memcpy4
    __aeabi_memcpy8
        0x000001f0:    4603        .F      MOV      r3,r0
        0x000001f2:    430b        .C      ORRS     r3,r3,r1
        0x000001f4:    079b        ..      LSLS     r3,r3,#30
        0x000001f6:    d003        ..      BEQ      0x200 ; __aeabi_memcpy + 16
        0x000001f8:    e009        ..      B        0x20e ; __aeabi_memcpy + 30
        0x000001fa:    c908        ..      LDM      r1!,{r3}
        0x000001fc:    1f12        ..      SUBS     r2,r2,#4
        0x000001fe:    c008        ..      STM      r0!,{r3}
        0x00000200:    2a04        .*      CMP      r2,#4
        0x00000202:    d2fa        ..      BCS      0x1fa ; __aeabi_memcpy + 10
        0x00000204:    e003        ..      B        0x20e ; __aeabi_memcpy + 30
        0x00000206:    780b        .x      LDRB     r3,[r1,#0]
        0x00000208:    7003        .p      STRB     r3,[r0,#0]
        0x0000020a:    1c40        @.      ADDS     r0,r0,#1
        0x0000020c:    1c49        I.      ADDS     r1,r1,#1
        0x0000020e:    1e52        R.      SUBS     r2,r2,#1
        0x00000210:    d2f9        ..      BCS      0x206 ; __aeabi_memcpy + 22
        0x00000212:    4770        pG      BX       lr
    .text
    __aeabi_memset
    __aeabi_memset4
    __aeabi_memset8
        0x00000214:    b2d2        ..      UXTB     r2,r2
        0x00000216:    e001        ..      B        0x21c ; __aeabi_memset + 8
        0x00000218:    7002        .p      STRB     r2,[r0,#0]
        0x0000021a:    1c40        @.      ADDS     r0,r0,#1
        0x0000021c:    1e49        I.      SUBS     r1,r1,#1
        0x0000021e:    d2fb        ..      BCS      0x218 ; __aeabi_memset + 4
        0x00000220:    4770        pG      BX       lr
    __aeabi_memclr
    __aeabi_memclr4
    __aeabi_memclr8
        0x00000222:    2200        ."      MOVS     r2,#0
        0x00000224:    e7f6        ..      B        __aeabi_memset ; 0x214
    _memset$wrapper
        0x00000226:    b510        ..      PUSH     {r4,lr}
        0x00000228:    4613        .F      MOV      r3,r2
        0x0000022a:    460a        .F      MOV      r2,r1
        0x0000022c:    4604        .F      MOV      r4,r0
        0x0000022e:    4619        .F      MOV      r1,r3
        0x00000230:    f7fffff0    ....    BL       __aeabi_memset ; 0x214
        0x00000234:    4620         F      MOV      r0,r4
        0x00000236:    bd10        ..      POP      {r4,pc}
    .text
    strncpy
        0x00000238:    b510        ..      PUSH     {r4,lr}
        0x0000023a:    4604        .F      MOV      r4,r0
        0x0000023c:    e005        ..      B        0x24a ; strncpy + 18
        0x0000023e:    780b        .x      LDRB     r3,[r1,#0]
        0x00000240:    7003        .p      STRB     r3,[r0,#0]
        0x00000242:    1c40        @.      ADDS     r0,r0,#1
        0x00000244:    2b00        .+      CMP      r3,#0
        0x00000246:    d000        ..      BEQ      0x24a ; strncpy + 18
        0x00000248:    1c49        I.      ADDS     r1,r1,#1
        0x0000024a:    1e52        R.      SUBS     r2,r2,#1
        0x0000024c:    d2f7        ..      BCS      0x23e ; strncpy + 6
        0x0000024e:    4620         F      MOV      r0,r4
        0x00000250:    bd10        ..      POP      {r4,pc}
    .text
    strncat
        0x00000252:    b510        ..      PUSH     {r4,lr}
        0x00000254:    4604        .F      MOV      r4,r0
        0x00000256:    e000        ..      B        0x25a ; strncat + 8
        0x00000258:    1c40        @.      ADDS     r0,r0,#1
        0x0000025a:    7803        .x      LDRB     r3,[r0,#0]
        0x0000025c:    2b00        .+      CMP      r3,#0
        0x0000025e:    d1fb        ..      BNE      0x258 ; strncat + 6
        0x00000260:    e000        ..      B        0x264 ; strncat + 18
        0x00000262:    1c40        @.      ADDS     r0,r0,#1
        0x00000264:    1e52        R.      SUBS     r2,r2,#1
        0x00000266:    d304        ..      BCC      0x272 ; strncat + 32
        0x00000268:    780b        .x      LDRB     r3,[r1,#0]
        0x0000026a:    1c49        I.      ADDS     r1,r1,#1
        0x0000026c:    7003        .p      STRB     r3,[r0,#0]
        0x0000026e:    2b00        .+      CMP      r3,#0
        0x00000270:    d1f7        ..      BNE      0x262 ; strncat + 16
        0x00000272:    2100        .!      MOVS     r1,#0
        0x00000274:    7001        .p      STRB     r1,[r0,#0]
        0x00000276:    4620         F      MOV      r0,r4
        0x00000278:    bd10        ..      POP      {r4,pc}
        0x0000027a:    0000        ..      MOVS     r0,r0
    .text
    __aeabi_dadd
        0x0000027c:    b5f0        ..      PUSH     {r4-r7,lr}
        0x0000027e:    4607        .F      MOV      r7,r0
        0x00000280:    4608        .F      MOV      r0,r1
        0x00000282:    4058        X@      EORS     r0,r0,r3
        0x00000284:    b087        ..      SUB      sp,sp,#0x1c
        0x00000286:    0fc0        ..      LSRS     r0,r0,#31
        0x00000288:    9004        ..      STR      r0,[sp,#0x10]
        0x0000028a:    0048        H.      LSLS     r0,r1,#1
        0x0000028c:    460e        .F      MOV      r6,r1
        0x0000028e:    0059        Y.      LSLS     r1,r3,#1
        0x00000290:    0840        @.      LSRS     r0,r0,#1
        0x00000292:    0849        I.      LSRS     r1,r1,#1
        0x00000294:    1abc        ..      SUBS     r4,r7,r2
        0x00000296:    4188        .A      SBCS     r0,r0,r1
        0x00000298:    d205        ..      BCS      0x2a6 ; __aeabi_dadd + 42
        0x0000029a:    4638        8F      MOV      r0,r7
        0x0000029c:    4631        1F      MOV      r1,r6
        0x0000029e:    461e        .F      MOV      r6,r3
        0x000002a0:    4617        .F      MOV      r7,r2
        0x000002a2:    460b        .F      MOV      r3,r1
        0x000002a4:    4602        .F      MOV      r2,r0
        0x000002a6:    0058        X.      LSLS     r0,r3,#1
        0x000002a8:    0840        @.      LSRS     r0,r0,#1
        0x000002aa:    4310        .C      ORRS     r0,r0,r2
        0x000002ac:    d04c        L.      BEQ      0x348 ; __aeabi_dadd + 204
        0x000002ae:    0d30        0.      LSRS     r0,r6,#20
        0x000002b0:    9003        ..      STR      r0,[sp,#0xc]
        0x000002b2:    0540        @.      LSLS     r0,r0,#21
        0x000002b4:    0059        Y.      LSLS     r1,r3,#1
        0x000002b6:    0d40        @.      LSRS     r0,r0,#21
        0x000002b8:    0d49        I.      LSRS     r1,r1,#21
        0x000002ba:    9005        ..      STR      r0,[sp,#0x14]
        0x000002bc:    1a40        @.      SUBS     r0,r0,r1
        0x000002be:    9002        ..      STR      r0,[sp,#8]
        0x000002c0:    2840        @(      CMP      r0,#0x40
        0x000002c2:    da72        r.      BGE      0x3aa ; __aeabi_dadd + 302
        0x000002c4:    0318        ..      LSLS     r0,r3,#12
        0x000002c6:    2101        .!      MOVS     r1,#1
        0x000002c8:    0b00        ..      LSRS     r0,r0,#12
        0x000002ca:    0509        ..      LSLS     r1,r1,#20
        0x000002cc:    4308        .C      ORRS     r0,r0,r1
        0x000002ce:    9001        ..      STR      r0,[sp,#4]
        0x000002d0:    9804        ..      LDR      r0,[sp,#0x10]
        0x000002d2:    9200        ..      STR      r2,[sp,#0]
        0x000002d4:    2800        .(      CMP      r0,#0
        0x000002d6:    d005        ..      BEQ      0x2e4 ; __aeabi_dadd + 104
        0x000002d8:    9901        ..      LDR      r1,[sp,#4]
        0x000002da:    4252        RB      RSBS     r2,r2,#0
        0x000002dc:    2000        .       MOVS     r0,#0
        0x000002de:    4188        .A      SBCS     r0,r0,r1
        0x000002e0:    9200        ..      STR      r2,[sp,#0]
        0x000002e2:    9001        ..      STR      r0,[sp,#4]
        0x000002e4:    9802        ..      LDR      r0,[sp,#8]
        0x000002e6:    2140        @!      MOVS     r1,#0x40
        0x000002e8:    1a0a        ..      SUBS     r2,r1,r0
        0x000002ea:    9901        ..      LDR      r1,[sp,#4]
        0x000002ec:    9800        ..      LDR      r0,[sp,#0]
        0x000002ee:    f000f957    ..W.    BL       __aeabi_llsl ; 0x5a0
        0x000002f2:    4605        .F      MOV      r5,r0
        0x000002f4:    460c        .F      MOV      r4,r1
        0x000002f6:    466b        kF      MOV      r3,sp
        0x000002f8:    cb07        ..      LDM      r3!,{r0-r2}
        0x000002fa:    f000f972    ..r.    BL       __aeabi_lasr ; 0x5e2
        0x000002fe:    19c0        ..      ADDS     r0,r0,r7
        0x00000300:    4171        qA      ADCS     r1,r1,r6
        0x00000302:    9a03        ..      LDR      r2,[sp,#0xc]
        0x00000304:    0d0e        ..      LSRS     r6,r1,#20
        0x00000306:    2300        .#      MOVS     r3,#0
        0x00000308:    17d7        ..      ASRS     r7,r2,#31
        0x0000030a:    4056        V@      EORS     r6,r6,r2
        0x0000030c:    461a        .F      MOV      r2,r3
        0x0000030e:    407a        z@      EORS     r2,r2,r7
        0x00000310:    4316        .C      ORRS     r6,r6,r2
        0x00000312:    d044        D.      BEQ      0x39e ; __aeabi_dadd + 290
        0x00000314:    9a04        ..      LDR      r2,[sp,#0x10]
        0x00000316:    2a00        .*      CMP      r2,#0
        0x00000318:    d02d        -.      BEQ      0x376 ; __aeabi_dadd + 250
        0x0000031a:    9a02        ..      LDR      r2,[sp,#8]
        0x0000031c:    2a01        .*      CMP      r2,#1
        0x0000031e:    9a03        ..      LDR      r2,[sp,#0xc]
        0x00000320:    dc15        ..      BGT      0x34e ; __aeabi_dadd + 210
        0x00000322:    0512        ..      LSLS     r2,r2,#20
        0x00000324:    1ac0        ..      SUBS     r0,r0,r3
        0x00000326:    4191        .A      SBCS     r1,r1,r2
        0x00000328:    2601        .&      MOVS     r6,#1
        0x0000032a:    0536        6.      LSLS     r6,r6,#20
        0x0000032c:    1c00        ..      ADDS     r0,r0,#0
        0x0000032e:    4171        qA      ADCS     r1,r1,r6
        0x00000330:    0fd2        ..      LSRS     r2,r2,#31
        0x00000332:    9e05        ..      LDR      r6,[sp,#0x14]
        0x00000334:    07d2        ..      LSLS     r2,r2,#31
        0x00000336:    9300        ..      STR      r3,[sp,#0]
        0x00000338:    9201        ..      STR      r2,[sp,#4]
        0x0000033a:    9602        ..      STR      r6,[sp,#8]
        0x0000033c:    462a        *F      MOV      r2,r5
        0x0000033e:    4623        #F      MOV      r3,r4
        0x00000340:    f000f96f    ..o.    BL       _double_epilogue ; 0x622
        0x00000344:    b007        ..      ADD      sp,sp,#0x1c
        0x00000346:    bdf0        ..      POP      {r4-r7,pc}
        0x00000348:    4638        8F      MOV      r0,r7
        0x0000034a:    4631        1F      MOV      r1,r6
        0x0000034c:    e7fa        ..      B        0x344 ; __aeabi_dadd + 200
        0x0000034e:    0516        ..      LSLS     r6,r2,#20
        0x00000350:    4a22        "J      LDR      r2,[pc,#136] ; [0x3dc] = 0xffe00000
        0x00000352:    460f        .F      MOV      r7,r1
        0x00000354:    18b2        ..      ADDS     r2,r6,r2
        0x00000356:    1ac0        ..      SUBS     r0,r0,r3
        0x00000358:    41b7        .A      SBCS     r7,r7,r6
        0x0000035a:    2101        .!      MOVS     r1,#1
        0x0000035c:    0509        ..      LSLS     r1,r1,#20
        0x0000035e:    1c00        ..      ADDS     r0,r0,#0
        0x00000360:    414f        OA      ADCS     r7,r7,r1
        0x00000362:    1800        ..      ADDS     r0,r0,r0
        0x00000364:    417f        .A      ADCS     r7,r7,r7
        0x00000366:    4611        .F      MOV      r1,r2
        0x00000368:    1818        ..      ADDS     r0,r3,r0
        0x0000036a:    4179        yA      ADCS     r1,r1,r7
        0x0000036c:    0fe2        ..      LSRS     r2,r4,#31
        0x0000036e:    4310        .C      ORRS     r0,r0,r2
        0x00000370:    196d        m.      ADDS     r5,r5,r5
        0x00000372:    4164        dA      ADCS     r4,r4,r4
        0x00000374:    e013        ..      B        0x39e ; __aeabi_dadd + 290
        0x00000376:    07e2        ..      LSLS     r2,r4,#31
        0x00000378:    086d        m.      LSRS     r5,r5,#1
        0x0000037a:    4315        .C      ORRS     r5,r5,r2
        0x0000037c:    0864        d.      LSRS     r4,r4,#1
        0x0000037e:    07c2        ..      LSLS     r2,r0,#31
        0x00000380:    4314        .C      ORRS     r4,r4,r2
        0x00000382:    9a03        ..      LDR      r2,[sp,#0xc]
        0x00000384:    2601        .&      MOVS     r6,#1
        0x00000386:    0512        ..      LSLS     r2,r2,#20
        0x00000388:    1ac0        ..      SUBS     r0,r0,r3
        0x0000038a:    4191        .A      SBCS     r1,r1,r2
        0x0000038c:    0536        6.      LSLS     r6,r6,#20
        0x0000038e:    1c00        ..      ADDS     r0,r0,#0
        0x00000390:    4171        qA      ADCS     r1,r1,r6
        0x00000392:    07ce        ..      LSLS     r6,r1,#31
        0x00000394:    0840        @.      LSRS     r0,r0,#1
        0x00000396:    4330        0C      ORRS     r0,r0,r6
        0x00000398:    0849        I.      LSRS     r1,r1,#1
        0x0000039a:    18c0        ..      ADDS     r0,r0,r3
        0x0000039c:    4151        QA      ADCS     r1,r1,r2
        0x0000039e:    462a        *F      MOV      r2,r5
        0x000003a0:    4623        #F      MOV      r3,r4
        0x000003a2:    f000f931    ..1.    BL       __I$use$fp ; 0x608
        0x000003a6:    e7cd        ..      B        0x344 ; __aeabi_dadd + 200
        0x000003a8:    e7ff        ..      B        0x3aa ; __aeabi_dadd + 302
        0x000003aa:    9804        ..      LDR      r0,[sp,#0x10]
        0x000003ac:    2201        ."      MOVS     r2,#1
        0x000003ae:    0040        @.      LSLS     r0,r0,#1
        0x000003b0:    17c1        ..      ASRS     r1,r0,#31
        0x000003b2:    1a12        ..      SUBS     r2,r2,r0
        0x000003b4:    2300        .#      MOVS     r3,#0
        0x000003b6:    418b        .A      SBCS     r3,r3,r1
        0x000003b8:    9804        ..      LDR      r0,[sp,#0x10]
        0x000003ba:    4631        1F      MOV      r1,r6
        0x000003bc:    17c4        ..      ASRS     r4,r0,#31
        0x000003be:    1a38        8.      SUBS     r0,r7,r0
        0x000003c0:    41a1        .A      SBCS     r1,r1,r4
        0x000003c2:    e7ee        ..      B        0x3a2 ; __aeabi_dadd + 294
    __aeabi_dsub
        0x000003c4:    b430        0.      PUSH     {r4,r5}
        0x000003c6:    2401        .$      MOVS     r4,#1
        0x000003c8:    07e4        ..      LSLS     r4,r4,#31
        0x000003ca:    4063        c@      EORS     r3,r3,r4
        0x000003cc:    bc30        0.      POP      {r4,r5}
        0x000003ce:    e755        U.      B        __aeabi_dadd ; 0x27c
    __aeabi_drsub
        0x000003d0:    b430        0.      PUSH     {r4,r5}
        0x000003d2:    2401        .$      MOVS     r4,#1
        0x000003d4:    07e4        ..      LSLS     r4,r4,#31
        0x000003d6:    4061        a@      EORS     r1,r1,r4
        0x000003d8:    bc30        0.      POP      {r4,r5}
        0x000003da:    e74f        O.      B        __aeabi_dadd ; 0x27c
    $d
        0x000003dc:    ffe00000    ....    DCD    4292870144
    $t
    .text
    __aeabi_ddiv
        0x000003e0:    b5f0        ..      PUSH     {r4-r7,lr}
        0x000003e2:    460c        .F      MOV      r4,r1
        0x000003e4:    405c        \@      EORS     r4,r4,r3
        0x000003e6:    b085        ..      SUB      sp,sp,#0x14
        0x000003e8:    0fe4        ..      LSRS     r4,r4,#31
        0x000003ea:    07e4        ..      LSLS     r4,r4,#31
        0x000003ec:    9403        ..      STR      r4,[sp,#0xc]
        0x000003ee:    004c        L.      LSLS     r4,r1,#1
        0x000003f0:    2600        .&      MOVS     r6,#0
        0x000003f2:    0864        d.      LSRS     r4,r4,#1
        0x000003f4:    0059        Y.      LSLS     r1,r3,#1
        0x000003f6:    4694        .F      MOV      r12,r2
        0x000003f8:    0849        I.      LSRS     r1,r1,#1
        0x000003fa:    4602        .F      MOV      r2,r0
        0x000003fc:    9602        ..      STR      r6,[sp,#8]
        0x000003fe:    4322        "C      ORRS     r2,r2,r4
        0x00000400:    d021        !.      BEQ      0x446 ; __aeabi_ddiv + 102
        0x00000402:    4662        bF      MOV      r2,r12
        0x00000404:    430a        .C      ORRS     r2,r2,r1
        0x00000406:    d01e        ..      BEQ      0x446 ; __aeabi_ddiv + 102
        0x00000408:    0062        b.      LSLS     r2,r4,#1
        0x0000040a:    0d57        W.      LSRS     r7,r2,#21
        0x0000040c:    004a        J.      LSLS     r2,r1,#1
        0x0000040e:    030e        ..      LSLS     r6,r1,#12
        0x00000410:    0323        #.      LSLS     r3,r4,#12
        0x00000412:    0d55        U.      LSRS     r5,r2,#21
        0x00000414:    2401        .$      MOVS     r4,#1
        0x00000416:    4602        .F      MOV      r2,r0
        0x00000418:    492c        ,I      LDR      r1,[pc,#176] ; [0x4cc] = 0x3fd
        0x0000041a:    0524        $.      LSLS     r4,r4,#20
        0x0000041c:    1b78        x.      SUBS     r0,r7,r5
        0x0000041e:    0b1b        ..      LSRS     r3,r3,#12
        0x00000420:    0b36        6.      LSRS     r6,r6,#12
        0x00000422:    1840        @.      ADDS     r0,r0,r1
        0x00000424:    4323        #C      ORRS     r3,r3,r4
        0x00000426:    4326        &C      ORRS     r6,r6,r4
        0x00000428:    4661        aF      MOV      r1,r12
        0x0000042a:    9000        ..      STR      r0,[sp,#0]
        0x0000042c:    461c        .F      MOV      r4,r3
        0x0000042e:    1a50        P.      SUBS     r0,r2,r1
        0x00000430:    41b4        .A      SBCS     r4,r4,r6
        0x00000432:    d303        ..      BCC      0x43c ; __aeabi_ddiv + 92
        0x00000434:    9800        ..      LDR      r0,[sp,#0]
        0x00000436:    1c40        @.      ADDS     r0,r0,#1
        0x00000438:    9000        ..      STR      r0,[sp,#0]
        0x0000043a:    e002        ..      B        0x442 ; __aeabi_ddiv + 98
        0x0000043c:    1892        ..      ADDS     r2,r2,r2
        0x0000043e:    9800        ..      LDR      r0,[sp,#0]
        0x00000440:    415b        [A      ADCS     r3,r3,r3
        0x00000442:    2800        .(      CMP      r0,#0
        0x00000444:    da03        ..      BGE      0x44e ; __aeabi_ddiv + 110
        0x00000446:    2000        .       MOVS     r0,#0
        0x00000448:    4601        .F      MOV      r1,r0
        0x0000044a:    b005        ..      ADD      sp,sp,#0x14
        0x0000044c:    bdf0        ..      POP      {r4-r7,pc}
        0x0000044e:    2000        .       MOVS     r0,#0
        0x00000450:    2101        .!      MOVS     r1,#1
        0x00000452:    0509        ..      LSLS     r1,r1,#20
        0x00000454:    4607        .F      MOV      r7,r0
        0x00000456:    4686        .F      MOV      lr,r0
        0x00000458:    e011        ..      B        0x47e ; __aeabi_ddiv + 158
        0x0000045a:    4664        dF      MOV      r4,r12
        0x0000045c:    461d        .F      MOV      r5,r3
        0x0000045e:    1b14        ..      SUBS     r4,r2,r4
        0x00000460:    41b5        .A      SBCS     r5,r5,r6
        0x00000462:    d306        ..      BCC      0x472 ; __aeabi_ddiv + 146
        0x00000464:    4665        eF      MOV      r5,r12
        0x00000466:    1b52        R.      SUBS     r2,r2,r5
        0x00000468:    41b3        .A      SBCS     r3,r3,r6
        0x0000046a:    4674        tF      MOV      r4,lr
        0x0000046c:    4307        .C      ORRS     r7,r7,r0
        0x0000046e:    430c        .C      ORRS     r4,r4,r1
        0x00000470:    46a6        .F      MOV      lr,r4
        0x00000472:    07cd        ..      LSLS     r5,r1,#31
        0x00000474:    0840        @.      LSRS     r0,r0,#1
        0x00000476:    0849        I.      LSRS     r1,r1,#1
        0x00000478:    4328        (C      ORRS     r0,r0,r5
        0x0000047a:    1892        ..      ADDS     r2,r2,r2
        0x0000047c:    415b        [A      ADCS     r3,r3,r3
        0x0000047e:    4605        .F      MOV      r5,r0
        0x00000480:    430d        .C      ORRS     r5,r5,r1
        0x00000482:    d1ea        ..      BNE      0x45a ; __aeabi_ddiv + 122
        0x00000484:    4610        .F      MOV      r0,r2
        0x00000486:    4318        .C      ORRS     r0,r0,r3
        0x00000488:    d013        ..      BEQ      0x4b2 ; __aeabi_ddiv + 210
        0x0000048a:    4660        `F      MOV      r0,r12
        0x0000048c:    4619        .F      MOV      r1,r3
        0x0000048e:    4050        P@      EORS     r0,r0,r2
        0x00000490:    4071        q@      EORS     r1,r1,r6
        0x00000492:    4308        .C      ORRS     r0,r0,r1
        0x00000494:    d006        ..      BEQ      0x4a4 ; __aeabi_ddiv + 196
        0x00000496:    4660        `F      MOV      r0,r12
        0x00000498:    1a10        ..      SUBS     r0,r2,r0
        0x0000049a:    41b3        .A      SBCS     r3,r3,r6
        0x0000049c:    d206        ..      BCS      0x4ac ; __aeabi_ddiv + 204
        0x0000049e:    2201        ."      MOVS     r2,#1
        0x000004a0:    2300        .#      MOVS     r3,#0
        0x000004a2:    e006        ..      B        0x4b2 ; __aeabi_ddiv + 210
        0x000004a4:    2200        ."      MOVS     r2,#0
        0x000004a6:    2301        .#      MOVS     r3,#1
        0x000004a8:    07db        ..      LSLS     r3,r3,#31
        0x000004aa:    e002        ..      B        0x4b2 ; __aeabi_ddiv + 210
        0x000004ac:    2201        ."      MOVS     r2,#1
        0x000004ae:    43d2        .C      MVNS     r2,r2
        0x000004b0:    1053        S.      ASRS     r3,r2,#1
        0x000004b2:    9800        ..      LDR      r0,[sp,#0]
        0x000004b4:    4674        tF      MOV      r4,lr
        0x000004b6:    0501        ..      LSLS     r1,r0,#20
        0x000004b8:    1c38        8.      ADDS     r0,r7,#0
        0x000004ba:    4161        aA      ADCS     r1,r1,r4
        0x000004bc:    9c02        ..      LDR      r4,[sp,#8]
        0x000004be:    9d03        ..      LDR      r5,[sp,#0xc]
        0x000004c0:    1900        ..      ADDS     r0,r0,r4
        0x000004c2:    4169        iA      ADCS     r1,r1,r5
        0x000004c4:    f000f8a0    ....    BL       __I$use$fp ; 0x608
        0x000004c8:    e7bf        ..      B        0x44a ; __aeabi_ddiv + 106
    $d
        0x000004ca:    0000        ..      DCW    0
        0x000004cc:    000003fd    ....    DCD    1021
    $t
    .text
    __aeabi_i2d
        0x000004d0:    b50e        ..      PUSH     {r1-r3,lr}
        0x000004d2:    17c2        ..      ASRS     r2,r0,#31
        0x000004d4:    0fc1        ..      LSRS     r1,r0,#31
        0x000004d6:    4050        P@      EORS     r0,r0,r2
        0x000004d8:    07ca        ..      LSLS     r2,r1,#31
        0x000004da:    1840        @.      ADDS     r0,r0,r1
        0x000004dc:    2100        .!      MOVS     r1,#0
        0x000004de:    4b05        .K      LDR      r3,[pc,#20] ; [0x4f4] = 0x433
        0x000004e0:    9302        ..      STR      r3,[sp,#8]
        0x000004e2:    9201        ..      STR      r2,[sp,#4]
        0x000004e4:    9100        ..      STR      r1,[sp,#0]
        0x000004e6:    460a        .F      MOV      r2,r1
        0x000004e8:    460b        .F      MOV      r3,r1
        0x000004ea:    f000f89a    ....    BL       _double_epilogue ; 0x622
        0x000004ee:    b003        ..      ADD      sp,sp,#0xc
        0x000004f0:    bd00        ..      POP      {pc}
    $d
        0x000004f2:    0000        ..      DCW    0
        0x000004f4:    00000433    3...    DCD    1075
    $t
    .text
    __aeabi_d2iz
        0x000004f8:    b570        p.      PUSH     {r4-r6,lr}
        0x000004fa:    0fcd        ..      LSRS     r5,r1,#31
        0x000004fc:    004a        J.      LSLS     r2,r1,#1
        0x000004fe:    0309        ..      LSLS     r1,r1,#12
        0x00000500:    2301        .#      MOVS     r3,#1
        0x00000502:    0b09        ..      LSRS     r1,r1,#12
        0x00000504:    051b        ..      LSLS     r3,r3,#20
        0x00000506:    4319        .C      ORRS     r1,r1,r3
        0x00000508:    4b0b        .K      LDR      r3,[pc,#44] ; [0x538] = 0x3ff
        0x0000050a:    07ed        ..      LSLS     r5,r5,#31
        0x0000050c:    2400        .$      MOVS     r4,#0
        0x0000050e:    0d52        R.      LSRS     r2,r2,#21
        0x00000510:    429a        .B      CMP      r2,r3
        0x00000512:    da01        ..      BGE      0x518 ; __aeabi_d2iz + 32
        0x00000514:    2000        .       MOVS     r0,#0
        0x00000516:    bd70        p.      POP      {r4-r6,pc}
        0x00000518:    4b07        .K      LDR      r3,[pc,#28] ; [0x538] = 0x3ff
        0x0000051a:    3334        43      ADDS     r3,r3,#0x34
        0x0000051c:    429a        .B      CMP      r2,r3
        0x0000051e:    dc03        ..      BGT      0x528 ; __aeabi_d2iz + 48
        0x00000520:    1a9a        ..      SUBS     r2,r3,r2
        0x00000522:    f000f84d    ..M.    BL       __aeabi_llsr ; 0x5c0
        0x00000526:    e002        ..      B        0x52e ; __aeabi_d2iz + 54
        0x00000528:    4904        .I      LDR      r1,[pc,#16] ; [0x53c] = 0xfffffbcd
        0x0000052a:    1851        Q.      ADDS     r1,r2,r1
        0x0000052c:    4088        .@      LSLS     r0,r0,r1
        0x0000052e:    432c        ,C      ORRS     r4,r4,r5
        0x00000530:    d0f1        ..      BEQ      0x516 ; __aeabi_d2iz + 30
        0x00000532:    4240        @B      RSBS     r0,r0,#0
        0x00000534:    bd70        p.      POP      {r4-r6,pc}
    $d
        0x00000536:    0000        ..      DCW    0
        0x00000538:    000003ff    ....    DCD    1023
        0x0000053c:    fffffbcd    ....    DCD    4294966221
    $t
    .text
    __aeabi_uldivmod
        0x00000540:    b5f0        ..      PUSH     {r4-r7,lr}
        0x00000542:    b41f        ..      PUSH     {r0-r4}
        0x00000544:    4606        .F      MOV      r6,r0
        0x00000546:    2000        .       MOVS     r0,#0
        0x00000548:    b082        ..      SUB      sp,sp,#8
        0x0000054a:    4605        .F      MOV      r5,r0
        0x0000054c:    2440        @$      MOVS     r4,#0x40
        0x0000054e:    9101        ..      STR      r1,[sp,#4]
        0x00000550:    9000        ..      STR      r0,[sp,#0]
        0x00000552:    e01b        ..      B        0x58c ; __aeabi_uldivmod + 76
        0x00000554:    9901        ..      LDR      r1,[sp,#4]
        0x00000556:    4622        "F      MOV      r2,r4
        0x00000558:    460f        .F      MOV      r7,r1
        0x0000055a:    4630        0F      MOV      r0,r6
        0x0000055c:    f000f830    ..0.    BL       __aeabi_llsr ; 0x5c0
        0x00000560:    9a04        ..      LDR      r2,[sp,#0x10]
        0x00000562:    9b05        ..      LDR      r3,[sp,#0x14]
        0x00000564:    1a80        ..      SUBS     r0,r0,r2
        0x00000566:    4199        .A      SBCS     r1,r1,r3
        0x00000568:    d310        ..      BCC      0x58c ; __aeabi_uldivmod + 76
        0x0000056a:    4610        .F      MOV      r0,r2
        0x0000056c:    4619        .F      MOV      r1,r3
        0x0000056e:    4622        "F      MOV      r2,r4
        0x00000570:    f000f816    ....    BL       __aeabi_llsl ; 0x5a0
        0x00000574:    1a36        6.      SUBS     r6,r6,r0
        0x00000576:    418f        .A      SBCS     r7,r7,r1
        0x00000578:    9701        ..      STR      r7,[sp,#4]
        0x0000057a:    4622        "F      MOV      r2,r4
        0x0000057c:    2001        .       MOVS     r0,#1
        0x0000057e:    2100        .!      MOVS     r1,#0
        0x00000580:    9f00        ..      LDR      r7,[sp,#0]
        0x00000582:    f000f80d    ....    BL       __aeabi_llsl ; 0x5a0
        0x00000586:    1838        8.      ADDS     r0,r7,r0
        0x00000588:    414d        MA      ADCS     r5,r5,r1
        0x0000058a:    9000        ..      STR      r0,[sp,#0]
        0x0000058c:    4620         F      MOV      r0,r4
        0x0000058e:    1e64        d.      SUBS     r4,r4,#1
        0x00000590:    2800        .(      CMP      r0,#0
        0x00000592:    dcdf        ..      BGT      0x554 ; __aeabi_uldivmod + 20
        0x00000594:    9b01        ..      LDR      r3,[sp,#4]
        0x00000596:    9800        ..      LDR      r0,[sp,#0]
        0x00000598:    4629        )F      MOV      r1,r5
        0x0000059a:    4632        2F      MOV      r2,r6
        0x0000059c:    b007        ..      ADD      sp,sp,#0x1c
        0x0000059e:    bdf0        ..      POP      {r4-r7,pc}
    .text
    __aeabi_llsl
    _ll_shift_l
        0x000005a0:    b510        ..      PUSH     {r4,lr}
        0x000005a2:    2a20         *      CMP      r2,#0x20
        0x000005a4:    db04        ..      BLT      0x5b0 ; __aeabi_llsl + 16
        0x000005a6:    4601        .F      MOV      r1,r0
        0x000005a8:    3a20         :      SUBS     r2,r2,#0x20
        0x000005aa:    4091        .@      LSLS     r1,r1,r2
        0x000005ac:    2000        .       MOVS     r0,#0
        0x000005ae:    bd10        ..      POP      {r4,pc}
        0x000005b0:    4091        .@      LSLS     r1,r1,r2
        0x000005b2:    2320         #      MOVS     r3,#0x20
        0x000005b4:    1a9c        ..      SUBS     r4,r3,r2
        0x000005b6:    4603        .F      MOV      r3,r0
        0x000005b8:    40e3        .@      LSRS     r3,r3,r4
        0x000005ba:    4319        .C      ORRS     r1,r1,r3
        0x000005bc:    4090        .@      LSLS     r0,r0,r2
        0x000005be:    bd10        ..      POP      {r4,pc}
    .text
    __aeabi_llsr
    _ll_ushift_r
        0x000005c0:    b510        ..      PUSH     {r4,lr}
        0x000005c2:    2a20         *      CMP      r2,#0x20
        0x000005c4:    db04        ..      BLT      0x5d0 ; __aeabi_llsr + 16
        0x000005c6:    4608        .F      MOV      r0,r1
        0x000005c8:    3a20         :      SUBS     r2,r2,#0x20
        0x000005ca:    40d0        .@      LSRS     r0,r0,r2
        0x000005cc:    2100        .!      MOVS     r1,#0
        0x000005ce:    bd10        ..      POP      {r4,pc}
        0x000005d0:    460b        .F      MOV      r3,r1
        0x000005d2:    40d3        .@      LSRS     r3,r3,r2
        0x000005d4:    40d0        .@      LSRS     r0,r0,r2
        0x000005d6:    2420         $      MOVS     r4,#0x20
        0x000005d8:    1aa2        ..      SUBS     r2,r4,r2
        0x000005da:    4091        .@      LSLS     r1,r1,r2
        0x000005dc:    4308        .C      ORRS     r0,r0,r1
        0x000005de:    4619        .F      MOV      r1,r3
        0x000005e0:    bd10        ..      POP      {r4,pc}
    .text
    __aeabi_lasr
    _ll_sshift_r
        0x000005e2:    b510        ..      PUSH     {r4,lr}
        0x000005e4:    2a20         *      CMP      r2,#0x20
        0x000005e6:    db06        ..      BLT      0x5f6 ; __aeabi_lasr + 20
        0x000005e8:    17cb        ..      ASRS     r3,r1,#31
        0x000005ea:    4608        .F      MOV      r0,r1
        0x000005ec:    3a20         :      SUBS     r2,r2,#0x20
        0x000005ee:    4110        .A      ASRS     r0,r0,r2
        0x000005f0:    17c1        ..      ASRS     r1,r0,#31
        0x000005f2:    430b        .C      ORRS     r3,r3,r1
        0x000005f4:    e006        ..      B        0x604 ; __aeabi_lasr + 34
        0x000005f6:    460b        .F      MOV      r3,r1
        0x000005f8:    4113        .A      ASRS     r3,r3,r2
        0x000005fa:    40d0        .@      LSRS     r0,r0,r2
        0x000005fc:    2420         $      MOVS     r4,#0x20
        0x000005fe:    1aa2        ..      SUBS     r2,r4,r2
        0x00000600:    4091        .@      LSLS     r1,r1,r2
        0x00000602:    4308        .C      ORRS     r0,r0,r1
        0x00000604:    4619        .F      MOV      r1,r3
        0x00000606:    bd10        ..      POP      {r4,pc}
    .text
    .text
    __I$use$fp
    _double_round
        0x00000608:    b510        ..      PUSH     {r4,lr}
        0x0000060a:    2b00        .+      CMP      r3,#0
        0x0000060c:    da08        ..      BGE      0x620 ; __I$use$fp + 24
        0x0000060e:    2400        .$      MOVS     r4,#0
        0x00000610:    1c40        @.      ADDS     r0,r0,#1
        0x00000612:    4161        aA      ADCS     r1,r1,r4
        0x00000614:    1892        ..      ADDS     r2,r2,r2
        0x00000616:    415b        [A      ADCS     r3,r3,r3
        0x00000618:    431a        .C      ORRS     r2,r2,r3
        0x0000061a:    d101        ..      BNE      0x620 ; __I$use$fp + 24
        0x0000061c:    0840        @.      LSRS     r0,r0,#1
        0x0000061e:    0040        @.      LSLS     r0,r0,#1
        0x00000620:    bd10        ..      POP      {r4,pc}
    _double_epilogue
        0x00000622:    b5f0        ..      PUSH     {r4-r7,lr}
        0x00000624:    b41f        ..      PUSH     {r0-r4}
        0x00000626:    b082        ..      SUB      sp,sp,#8
        0x00000628:    4605        .F      MOV      r5,r0
        0x0000062a:    000c        ..      MOVS     r4,r1
        0x0000062c:    d003        ..      BEQ      0x636 ; _double_epilogue + 20
        0x0000062e:    4608        .F      MOV      r0,r1
        0x00000630:    f000fcaa    ....    BL       __ARM_clz ; 0xf88
        0x00000634:    e002        ..      B        0x63c ; _double_epilogue + 26
        0x00000636:    f000fca7    ....    BL       __ARM_clz ; 0xf88
        0x0000063a:    3020         0      ADDS     r0,r0,#0x20
        0x0000063c:    4602        .F      MOV      r2,r0
        0x0000063e:    9000        ..      STR      r0,[sp,#0]
        0x00000640:    4621        !F      MOV      r1,r4
        0x00000642:    4628        (F      MOV      r0,r5
        0x00000644:    f7ffffac    ....    BL       __aeabi_llsl ; 0x5a0
        0x00000648:    9b04        ..      LDR      r3,[sp,#0x10]
        0x0000064a:    9a05        ..      LDR      r2,[sp,#0x14]
        0x0000064c:    4604        .F      MOV      r4,r0
        0x0000064e:    460f        .F      MOV      r7,r1
        0x00000650:    4318        .C      ORRS     r0,r0,r3
        0x00000652:    4311        .C      ORRS     r1,r1,r2
        0x00000654:    4308        .C      ORRS     r0,r0,r1
        0x00000656:    d014        ..      BEQ      0x682 ; _double_epilogue + 96
        0x00000658:    4618        .F      MOV      r0,r3
        0x0000065a:    4310        .C      ORRS     r0,r0,r2
        0x0000065c:    d01b        ..      BEQ      0x696 ; _double_epilogue + 116
        0x0000065e:    9800        ..      LDR      r0,[sp,#0]
        0x00000660:    2140        @!      MOVS     r1,#0x40
        0x00000662:    1a0a        ..      SUBS     r2,r1,r0
        0x00000664:    4618        .F      MOV      r0,r3
        0x00000666:    9905        ..      LDR      r1,[sp,#0x14]
        0x00000668:    f7ffffaa    ....    BL       __aeabi_llsr ; 0x5c0
        0x0000066c:    4605        .F      MOV      r5,r0
        0x0000066e:    460e        .F      MOV      r6,r1
        0x00000670:    9a00        ..      LDR      r2,[sp,#0]
        0x00000672:    9905        ..      LDR      r1,[sp,#0x14]
        0x00000674:    9804        ..      LDR      r0,[sp,#0x10]
        0x00000676:    f7ffff93    ....    BL       __aeabi_llsl ; 0x5a0
        0x0000067a:    4308        .C      ORRS     r0,r0,r1
        0x0000067c:    d005        ..      BEQ      0x68a ; _double_epilogue + 104
        0x0000067e:    2001        .       MOVS     r0,#1
        0x00000680:    e004        ..      B        0x68c ; _double_epilogue + 106
        0x00000682:    4620         F      MOV      r0,r4
        0x00000684:    4639        9F      MOV      r1,r7
        0x00000686:    b007        ..      ADD      sp,sp,#0x1c
        0x00000688:    bdf0        ..      POP      {r4-r7,pc}
        0x0000068a:    2000        .       MOVS     r0,#0
        0x0000068c:    17c1        ..      ASRS     r1,r0,#31
        0x0000068e:    4305        .C      ORRS     r5,r5,r0
        0x00000690:    430e        .C      ORRS     r6,r6,r1
        0x00000692:    432c        ,C      ORRS     r4,r4,r5
        0x00000694:    4337        7C      ORRS     r7,r7,r6
        0x00000696:    9900        ..      LDR      r1,[sp,#0]
        0x00000698:    980e        ..      LDR      r0,[sp,#0x38]
        0x0000069a:    0563        c.      LSLS     r3,r4,#21
        0x0000069c:    1a40        @.      SUBS     r0,r0,r1
        0x0000069e:    0579        y.      LSLS     r1,r7,#21
        0x000006a0:    0ae4        ..      LSRS     r4,r4,#11
        0x000006a2:    2200        ."      MOVS     r2,#0
        0x000006a4:    430c        .C      ORRS     r4,r4,r1
        0x000006a6:    0afd        ..      LSRS     r5,r7,#11
        0x000006a8:    300a        .0      ADDS     r0,r0,#0xa
        0x000006aa:    d502        ..      BPL      0x6b2 ; _double_epilogue + 144
        0x000006ac:    2000        .       MOVS     r0,#0
        0x000006ae:    4601        .F      MOV      r1,r0
        0x000006b0:    e7e9        ..      B        0x686 ; _double_epilogue + 100
        0x000006b2:    0501        ..      LSLS     r1,r0,#20
        0x000006b4:    1910        ..      ADDS     r0,r2,r4
        0x000006b6:    4169        iA      ADCS     r1,r1,r5
        0x000006b8:    9c0c        ..      LDR      r4,[sp,#0x30]
        0x000006ba:    9d0d        ..      LDR      r5,[sp,#0x34]
        0x000006bc:    1900        ..      ADDS     r0,r0,r4
        0x000006be:    4169        iA      ADCS     r1,r1,r5
        0x000006c0:    f7ffffa2    ....    BL       __I$use$fp ; 0x608
        0x000006c4:    e7df        ..      B        0x686 ; _double_epilogue + 100
        0x000006c6:    0000        ..      MOVS     r0,r0
    .text
    __aeabi_dmul
        0x000006c8:    b5f0        ..      PUSH     {r4-r7,lr}
        0x000006ca:    b41f        ..      PUSH     {r0-r4}
        0x000006cc:    b088        ..      SUB      sp,sp,#0x20
        0x000006ce:    990b        ..      LDR      r1,[sp,#0x2c]
        0x000006d0:    9809        ..      LDR      r0,[sp,#0x24]
        0x000006d2:    2400        .$      MOVS     r4,#0
        0x000006d4:    4048        H@      EORS     r0,r0,r1
        0x000006d6:    9909        ..      LDR      r1,[sp,#0x24]
        0x000006d8:    0fc0        ..      LSRS     r0,r0,#31
        0x000006da:    0049        I.      LSLS     r1,r1,#1
        0x000006dc:    0849        I.      LSRS     r1,r1,#1
        0x000006de:    9109        ..      STR      r1,[sp,#0x24]
        0x000006e0:    07c0        ..      LSLS     r0,r0,#31
        0x000006e2:    990b        ..      LDR      r1,[sp,#0x2c]
        0x000006e4:    9000        ..      STR      r0,[sp,#0]
        0x000006e6:    0049        I.      LSLS     r1,r1,#1
        0x000006e8:    0849        I.      LSRS     r1,r1,#1
        0x000006ea:    910b        ..      STR      r1,[sp,#0x2c]
        0x000006ec:    9909        ..      LDR      r1,[sp,#0x24]
        0x000006ee:    9808        ..      LDR      r0,[sp,#0x20]
        0x000006f0:    46a6        .F      MOV      lr,r4
        0x000006f2:    4308        .C      ORRS     r0,r0,r1
        0x000006f4:    d01c        ..      BEQ      0x730 ; __aeabi_dmul + 104
        0x000006f6:    990b        ..      LDR      r1,[sp,#0x2c]
        0x000006f8:    980a        ..      LDR      r0,[sp,#0x28]
        0x000006fa:    4308        .C      ORRS     r0,r0,r1
        0x000006fc:    d018        ..      BEQ      0x730 ; __aeabi_dmul + 104
        0x000006fe:    9809        ..      LDR      r0,[sp,#0x24]
        0x00000700:    2401        .$      MOVS     r4,#1
        0x00000702:    0040        @.      LSLS     r0,r0,#1
        0x00000704:    0d42        B.      LSRS     r2,r0,#21
        0x00000706:    0048        H.      LSLS     r0,r1,#1
        0x00000708:    0d41        A.      LSRS     r1,r0,#21
        0x0000070a:    9809        ..      LDR      r0,[sp,#0x24]
        0x0000070c:    0524        $.      LSLS     r4,r4,#20
        0x0000070e:    0300        ..      LSLS     r0,r0,#12
        0x00000710:    0b00        ..      LSRS     r0,r0,#12
        0x00000712:    4320         C      ORRS     r0,r0,r4
        0x00000714:    9009        ..      STR      r0,[sp,#0x24]
        0x00000716:    980b        ..      LDR      r0,[sp,#0x2c]
        0x00000718:    0300        ..      LSLS     r0,r0,#12
        0x0000071a:    0b00        ..      LSRS     r0,r0,#12
        0x0000071c:    4320         C      ORRS     r0,r0,r4
        0x0000071e:    900b        ..      STR      r0,[sp,#0x2c]
        0x00000720:    1850        P.      ADDS     r0,r2,r1
        0x00000722:    491c        .I      LDR      r1,[pc,#112] ; [0x794] = 0xfffffc0d
        0x00000724:    1840        @.      ADDS     r0,r0,r1
        0x00000726:    2200        ."      MOVS     r2,#0
        0x00000728:    9001        ..      STR      r0,[sp,#4]
        0x0000072a:    4614        .F      MOV      r4,r2
        0x0000072c:    4610        .F      MOV      r0,r2
        0x0000072e:    e005        ..      B        0x73c ; __aeabi_dmul + 116
        0x00000730:    2000        .       MOVS     r0,#0
        0x00000732:    4601        .F      MOV      r1,r0
        0x00000734:    b00d        ..      ADD      sp,sp,#0x34
        0x00000736:    bdf0        ..      POP      {r4-r7,pc}
        0x00000738:    2803        .(      CMP      r0,#3
        0x0000073a:    da01        ..      BGE      0x740 ; __aeabi_dmul + 120
        0x0000073c:    4603        .F      MOV      r3,r0
        0x0000073e:    e000        ..      B        0x742 ; __aeabi_dmul + 122
        0x00000740:    2303        .#      MOVS     r3,#3
        0x00000742:    469c        .F      MOV      r12,r3
        0x00000744:    1ac1        ..      SUBS     r1,r0,r3
        0x00000746:    ae0a        ..      ADD      r6,sp,#0x28
        0x00000748:    e00a        ..      B        0x760 ; __aeabi_dmul + 152
        0x0000074a:    005f        _.      LSLS     r7,r3,#1
        0x0000074c:    ad08        ..      ADD      r5,sp,#0x20
        0x0000074e:    5bed        .[      LDRH     r5,[r5,r7]
        0x00000750:    004f        O.      LSLS     r7,r1,#1
        0x00000752:    5bf7        .[      LDRH     r7,[r6,r7]
        0x00000754:    437d        }C      MULS     r5,r7,r5
        0x00000756:    2700        .'      MOVS     r7,#0
        0x00000758:    18aa        ..      ADDS     r2,r5,r2
        0x0000075a:    417c        |A      ADCS     r4,r4,r7
        0x0000075c:    1c49        I.      ADDS     r1,r1,#1
        0x0000075e:    1e5b        [.      SUBS     r3,r3,#1
        0x00000760:    4561        aE      CMP      r1,r12
        0x00000762:    ddf2        ..      BLE      0x74a ; __aeabi_dmul + 130
        0x00000764:    0041        A.      LSLS     r1,r0,#1
        0x00000766:    ab04        ..      ADD      r3,sp,#0x10
        0x00000768:    525a        ZR      STRH     r2,[r3,r1]
        0x0000076a:    0421        !.      LSLS     r1,r4,#16
        0x0000076c:    0c12        ..      LSRS     r2,r2,#16
        0x0000076e:    430a        .C      ORRS     r2,r2,r1
        0x00000770:    0c24        $.      LSRS     r4,r4,#16
        0x00000772:    1c40        @.      ADDS     r0,r0,#1
        0x00000774:    2808        .(      CMP      r0,#8
        0x00000776:    dbdf        ..      BLT      0x738 ; __aeabi_dmul + 112
        0x00000778:    9801        ..      LDR      r0,[sp,#4]
        0x0000077a:    9002        ..      STR      r0,[sp,#8]
        0x0000077c:    9900        ..      LDR      r1,[sp,#0]
        0x0000077e:    4670        pF      MOV      r0,lr
        0x00000780:    9101        ..      STR      r1,[sp,#4]
        0x00000782:    9000        ..      STR      r0,[sp,#0]
        0x00000784:    9b05        ..      LDR      r3,[sp,#0x14]
        0x00000786:    9a04        ..      LDR      r2,[sp,#0x10]
        0x00000788:    9907        ..      LDR      r1,[sp,#0x1c]
        0x0000078a:    9806        ..      LDR      r0,[sp,#0x18]
        0x0000078c:    f7ffff49    ..I.    BL       _double_epilogue ; 0x622
        0x00000790:    e7d0        ..      B        0x734 ; __aeabi_dmul + 108
    $d
        0x00000792:    0000        ..      DCW    0
        0x00000794:    fffffc0d    ....    DCD    4294966285
    $t
    .text
    __ARM_scalbn
    scalbn
        0x00000798:    b570        p.      PUSH     {r4-r6,lr}
        0x0000079a:    004b        K.      LSLS     r3,r1,#1
        0x0000079c:    085b        [.      LSRS     r3,r3,#1
        0x0000079e:    4303        .C      ORRS     r3,r3,r0
        0x000007a0:    d00b        ..      BEQ      0x7ba ; __ARM_scalbn + 34
        0x000007a2:    004b        K.      LSLS     r3,r1,#1
        0x000007a4:    0d5c        \.      LSRS     r4,r3,#21
        0x000007a6:    2600        .&      MOVS     r6,#0
        0x000007a8:    4633        3F      MOV      r3,r6
        0x000007aa:    4265        eB      RSBS     r5,r4,#0
        0x000007ac:    41b3        .A      SBCS     r3,r3,r6
        0x000007ae:    17d4        ..      ASRS     r4,r2,#31
        0x000007b0:    1aad        ..      SUBS     r5,r5,r2
        0x000007b2:    41a3        .A      SBCS     r3,r3,r4
        0x000007b4:    db02        ..      BLT      0x7bc ; __ARM_scalbn + 36
        0x000007b6:    2000        .       MOVS     r0,#0
        0x000007b8:    4601        .F      MOV      r1,r0
        0x000007ba:    bd70        p.      POP      {r4-r6,pc}
        0x000007bc:    0512        ..      LSLS     r2,r2,#20
        0x000007be:    1830        0.      ADDS     r0,r6,r0
        0x000007c0:    4151        QA      ADCS     r1,r1,r2
        0x000007c2:    bd70        p.      POP      {r4-r6,pc}
    .text
    __aeabi_cdcmpeq
    __aeabi_cdcmple
        0x000007c4:    b510        ..      PUSH     {r4,lr}
        0x000007c6:    2900        .)      CMP      r1,#0
        0x000007c8:    db04        ..      BLT      0x7d4 ; __aeabi_cdcmpeq + 16
        0x000007ca:    2401        .$      MOVS     r4,#1
        0x000007cc:    07e4        ..      LSLS     r4,r4,#31
        0x000007ce:    4240        @B      RSBS     r0,r0,#0
        0x000007d0:    418c        .A      SBCS     r4,r4,r1
        0x000007d2:    4621        !F      MOV      r1,r4
        0x000007d4:    2b00        .+      CMP      r3,#0
        0x000007d6:    db04        ..      BLT      0x7e2 ; __aeabi_cdcmpeq + 30
        0x000007d8:    461c        .F      MOV      r4,r3
        0x000007da:    2301        .#      MOVS     r3,#1
        0x000007dc:    07db        ..      LSLS     r3,r3,#31
        0x000007de:    4252        RB      RSBS     r2,r2,#0
        0x000007e0:    41a3        .A      SBCS     r3,r3,r4
        0x000007e2:    428b        .B      CMP      r3,r1
        0x000007e4:    d100        ..      BNE      0x7e8 ; __aeabi_cdcmpeq + 36
        0x000007e6:    4282        .B      CMP      r2,r0
        0x000007e8:    bd10        ..      POP      {r4,pc}
    $d
        0x000007ea:    0000        ..      DCW    0
    $t
    .text
    __scatterload
    __scatterload_rt2
        0x000007ec:    4c06        .L      LDR      r4,[pc,#24] ; [0x808] = 0x1f68
        0x000007ee:    2501        .%      MOVS     r5,#1
        0x000007f0:    4e06        .N      LDR      r6,[pc,#24] ; [0x80c] = 0x1f88
        0x000007f2:    e005        ..      B        0x800 ; __scatterload + 20
        0x000007f4:    68e3        .h      LDR      r3,[r4,#0xc]
        0x000007f6:    cc07        ..      LDM      r4!,{r0-r2}
        0x000007f8:    432b        +C      ORRS     r3,r3,r5
        0x000007fa:    3c0c        .<      SUBS     r4,r4,#0xc
        0x000007fc:    4798        .G      BLX      r3
        0x000007fe:    3410        .4      ADDS     r4,r4,#0x10
        0x00000800:    42b4        .B      CMP      r4,r6
        0x00000802:    d3f7        ..      BCC      0x7f4 ; __scatterload + 8
        0x00000804:    f7fffc60    ..`.    BL       __main_after_scatterload ; 0xc8
    $d
        0x00000808:    00001f68    h...    DCD    8040
        0x0000080c:    00001f88    ....    DCD    8072
    $t
    i.AdcContScanModeTest
    AdcContScanModeTest
        0x00000810:    b5f8        ..      PUSH     {r3-r7,lr}
        0x00000812:    483d        =H      LDR      r0,[pc,#244] ; [0x908] = 0x400e0000
        0x00000814:    210d        .!      MOVS     r1,#0xd
        0x00000816:    6201        .b      STR      r1,[r0,#0x20]
        0x00000818:    6a41        Aj      LDR      r1,[r0,#0x24]
        0x0000081a:    6a42        Bj      LDR      r2,[r0,#0x24]
        0x0000081c:    2307        .#      MOVS     r3,#7
        0x0000081e:    0a12        ..      LSRS     r2,r2,#8
        0x00000820:    0212        ..      LSLS     r2,r2,#8
        0x00000822:    431a        .C      ORRS     r2,r2,r3
        0x00000824:    4311        .C      ORRS     r1,r1,r2
        0x00000826:    6241        Ab      STR      r1,[r0,#0x24]
        0x00000828:    2101        .!      MOVS     r1,#1
        0x0000082a:    6301        .c      STR      r1,[r0,#0x30]
        0x0000082c:    6a01        .j      LDR      r1,[r0,#0x20]
        0x0000082e:    2201        ."      MOVS     r2,#1
        0x00000830:    02d2        ..      LSLS     r2,r2,#11
        0x00000832:    4311        .C      ORRS     r1,r1,r2
        0x00000834:    6201        .b      STR      r1,[r0,#0x20]
        0x00000836:    6b01        .k      LDR      r1,[r0,#0x30]
        0x00000838:    07c9        ..      LSLS     r1,r1,#31
        0x0000083a:    d0fc        ..      BEQ      0x836 ; AdcContScanModeTest + 38
        0x0000083c:    6a01        .j      LDR      r1,[r0,#0x20]
        0x0000083e:    4391        .C      BICS     r1,r1,r2
        0x00000840:    6201        .b      STR      r1,[r0,#0x20]
        0x00000842:    2400        .$      MOVS     r4,#0
        0x00000844:    4830        0H      LDR      r0,[pc,#192] ; [0x908] = 0x400e0000
        0x00000846:    00a1        ..      LSLS     r1,r4,#2
        0x00000848:    1808        ..      ADDS     r0,r1,r0
        0x0000084a:    6800        .h      LDR      r0,[r0,#0]
        0x0000084c:    4930        0I      LDR      r1,[pc,#192] ; [0x910] = 0x3ff0b333
        0x0000084e:    b287        ..      UXTH     r7,r0
        0x00000850:    482e        .H      LDR      r0,[pc,#184] ; [0x90c] = 0x6cd335c7
        0x00000852:    f000fe79    ..y.    BL       log ; 0x1548
        0x00000856:    4605        .F      MOV      r5,r0
        0x00000858:    482e        .H      LDR      r0,[pc,#184] ; [0x914] = 0xe7e
        0x0000085a:    460e        .F      MOV      r6,r1
        0x0000085c:    1bc0        ..      SUBS     r0,r0,r7
        0x0000085e:    f7fffe37    ..7.    BL       __aeabi_i2d ; 0x4d0
        0x00000862:    f000fe71    ..q.    BL       log ; 0x1548
        0x00000866:    462a        *F      MOV      r2,r5
        0x00000868:    4633        3F      MOV      r3,r6
        0x0000086a:    f7fffdb9    ....    BL       __aeabi_ddiv ; 0x3e0
        0x0000086e:    4f2a        *O      LDR      r7,[pc,#168] ; [0x918] = 0x20000030
        0x00000870:    00e6        ..      LSLS     r6,r4,#3
        0x00000872:    4602        .F      MOV      r2,r0
        0x00000874:    19bb        ..      ADDS     r3,r7,r6
        0x00000876:    cb21        !.      LDM      r3!,{r0,r5}
        0x00000878:    460b        .F      MOV      r3,r1
        0x0000087a:    4629        )F      MOV      r1,r5
        0x0000087c:    f7fffcfe    ....    BL       __aeabi_dadd ; 0x27c
        0x00000880:    4602        .F      MOV      r2,r0
        0x00000882:    19b8        ..      ADDS     r0,r7,r6
        0x00000884:    1c64        d.      ADDS     r4,r4,#1
        0x00000886:    6002        .`      STR      r2,[r0,#0]
        0x00000888:    6041        A`      STR      r1,[r0,#4]
        0x0000088a:    2c02        .,      CMP      r4,#2
        0x0000088c:    d3da        ..      BCC      0x844 ; AdcContScanModeTest + 52
        0x0000088e:    491e        .I      LDR      r1,[pc,#120] ; [0x908] = 0x400e0000
        0x00000890:    2001        .       MOVS     r0,#1
        0x00000892:    6308        .c      STR      r0,[r1,#0x30]
        0x00000894:    4e21        !N      LDR      r6,[pc,#132] ; [0x91c] = 0x2000000c
        0x00000896:    7830        0x      LDRB     r0,[r6,#0]
        0x00000898:    1c40        @.      ADDS     r0,r0,#1
        0x0000089a:    b2c0        ..      UXTB     r0,r0
        0x0000089c:    7030        0p      STRB     r0,[r6,#0]
        0x0000089e:    280a        .(      CMP      r0,#0xa
        0x000008a0:    d330        0.      BCC      0x904 ; AdcContScanModeTest + 244
        0x000008a2:    463d        =F      MOV      r5,r7
        0x000008a4:    4f1e        .O      LDR      r7,[pc,#120] ; [0x920] = 0x40240000
        0x000008a6:    cd03        ..      LDM      r5!,{r0,r1}
        0x000008a8:    2200        ."      MOVS     r2,#0
        0x000008aa:    463b        ;F      MOV      r3,r7
        0x000008ac:    3d08        .=      SUBS     r5,r5,#8
        0x000008ae:    f7fffd97    ....    BL       __aeabi_ddiv ; 0x3e0
        0x000008b2:    f7fffe21    ..!.    BL       __aeabi_d2iz ; 0x4f8
        0x000008b6:    4634        4F      MOV      r4,r6
        0x000008b8:    340c        .4      ADDS     r4,r4,#0xc
        0x000008ba:    6821        !h      LDR      r1,[r4,#0]
        0x000008bc:    1c4a        J.      ADDS     r2,r1,#1
        0x000008be:    4290        .B      CMP      r0,r2
        0x000008c0:    dc02        ..      BGT      0x8c8 ; AdcContScanModeTest + 184
        0x000008c2:    1e49        I.      SUBS     r1,r1,#1
        0x000008c4:    4288        .B      CMP      r0,r1
        0x000008c6:    da04        ..      BGE      0x8d2 ; AdcContScanModeTest + 194
        0x000008c8:    4601        .F      MOV      r1,r0
        0x000008ca:    6020         `      STR      r0,[r4,#0]
        0x000008cc:    a015        ..      ADR      r0,{pc}+0x58 ; 0x924
        0x000008ce:    f000fb37    ..7.    BL       __0printf$8 ; 0xf40
        0x000008d2:    2200        ."      MOVS     r2,#0
        0x000008d4:    463b        ;F      MOV      r3,r7
        0x000008d6:    68e9        .h      LDR      r1,[r5,#0xc]
        0x000008d8:    68a8        .h      LDR      r0,[r5,#8]
        0x000008da:    f7fffd81    ....    BL       __aeabi_ddiv ; 0x3e0
        0x000008de:    f7fffe0b    ....    BL       __aeabi_d2iz ; 0x4f8
        0x000008e2:    6861        ah      LDR      r1,[r4,#4]
        0x000008e4:    1c4a        J.      ADDS     r2,r1,#1
        0x000008e6:    4290        .B      CMP      r0,r2
        0x000008e8:    dc02        ..      BGT      0x8f0 ; AdcContScanModeTest + 224
        0x000008ea:    1e49        I.      SUBS     r1,r1,#1
        0x000008ec:    4288        .B      CMP      r0,r1
        0x000008ee:    da04        ..      BGE      0x8fa ; AdcContScanModeTest + 234
        0x000008f0:    4601        .F      MOV      r1,r0
        0x000008f2:    6060        ``      STR      r0,[r4,#4]
        0x000008f4:    a00b        ..      ADR      r0,{pc}+0x30 ; 0x924
        0x000008f6:    f000fb23    ..#.    BL       __0printf$8 ; 0xf40
        0x000008fa:    2000        .       MOVS     r0,#0
        0x000008fc:    7030        0p      STRB     r0,[r6,#0]
        0x000008fe:    4601        .F      MOV      r1,r0
        0x00000900:    c503        ..      STM      r5!,{r0,r1}
        0x00000902:    c503        ..      STM      r5!,{r0,r1}
        0x00000904:    bdf8        ..      POP      {r3-r7,pc}
    $d
        0x00000906:    0000        ..      DCW    0
        0x00000908:    400e0000    ...@    DCD    1074659328
        0x0000090c:    6cd335c7    .5.l    DCD    1825781191
        0x00000910:    3ff0b333    3..?    DCD    1072739123
        0x00000914:    00000e7e    ~...    DCD    3710
        0x00000918:    20000030    0..     DCD    536870960
        0x0000091c:    2000000c    ...     DCD    536870924
        0x00000920:    40240000    ..$@    DCD    1076101120
        0x00000924:    64696c73    slid    DCD    1684630643
        0x00000928:    31207265    er 1    DCD    824210021
        0x0000092c:    0a64253a    :%d.    DCD    174335290
        0x00000930:    00000000    ....    DCD    0
    $t
    i.GetPin
    GetPin
        0x00000934:    0140        @.      LSLS     r0,r0,#5
        0x00000936:    0089        ..      LSLS     r1,r1,#2
        0x00000938:    1840        @.      ADDS     r0,r0,r1
        0x0000093a:    4902        .I      LDR      r1,[pc,#8] ; [0x944] = 0x50004200
        0x0000093c:    1840        @.      ADDS     r0,r0,r1
        0x0000093e:    6800        .h      LDR      r0,[r0,#0]
        0x00000940:    4770        pG      BX       lr
    $d
        0x00000942:    0000        ..      DCW    0
        0x00000944:    50004200    .B.P    DCD    1342194176
    $t
    i.Hard_Fault_Handler
    Hard_Fault_Handler
    __tagsym$$used
        0x00000948:    4604        .F      MOV      r4,r0
        0x0000094a:    a003        ..      ADR      r0,{pc}+0xe ; 0x958
        0x0000094c:    f000faf8    ....    BL       __0printf$8 ; 0xf40
        0x00000950:    4620         F      MOV      r0,r4
        0x00000952:    f001fa93    ....    BL       stackDump ; 0x1e7c
        0x00000956:    e7fe        ..      B        0x956 ; Hard_Fault_Handler + 14
    $d
        0x00000958:    48206e49    In H    DCD    1210084937
        0x0000095c:    20647261    ard     DCD    543453793
        0x00000960:    6c756146    Faul    DCD    1819631942
        0x00000964:    61482074    t Ha    DCD    1632116852
        0x00000968:    656c646e    ndle    DCD    1701602414
        0x0000096c:    00000a72    r...    DCD    2674
    $t
    i.I2C0_IRQHandler
    I2C0_IRQHandler
        0x00000970:    4907        .I      LDR      r1,[pc,#28] ; [0x990] = 0x40020000
        0x00000972:    68c8        .h      LDR      r0,[r1,#0xc]
        0x00000974:    694a        Ji      LDR      r2,[r1,#0x14]
        0x00000976:    07d2        ..      LSLS     r2,r2,#31
        0x00000978:    d004        ..      BEQ      0x984 ; I2C0_IRQHandler + 20
        0x0000097a:    6948        Hi      LDR      r0,[r1,#0x14]
        0x0000097c:    2201        ."      MOVS     r2,#1
        0x0000097e:    4310        .C      ORRS     r0,r0,r2
        0x00000980:    6148        Ha      STR      r0,[r1,#0x14]
        0x00000982:    4770        pG      BX       lr
        0x00000984:    4903        .I      LDR      r1,[pc,#12] ; [0x994] = 0x2000000c
        0x00000986:    6889        .h      LDR      r1,[r1,#8]
        0x00000988:    2900        .)      CMP      r1,#0
        0x0000098a:    d0fa        ..      BEQ      0x982 ; I2C0_IRQHandler + 18
        0x0000098c:    4708        .G      BX       r1
    $d
        0x0000098e:    0000        ..      DCW    0
        0x00000990:    40020000    ...@    DCD    1073872896
        0x00000994:    2000000c    ...     DCD    536870924
    $t
    i.I2C0_Init
    I2C0_Init
        0x00000998:    b510        ..      PUSH     {r4,lr}
        0x0000099a:    2005        .       MOVS     r0,#5
        0x0000099c:    0700        ..      LSLS     r0,r0,#28
        0x0000099e:    68c2        .h      LDR      r2,[r0,#0xc]
        0x000009a0:    21ff        .!      MOVS     r1,#0xff
        0x000009a2:    3101        .1      ADDS     r1,#1
        0x000009a4:    430a        .C      ORRS     r2,r2,r1
        0x000009a6:    60c2        .`      STR      r2,[r0,#0xc]
        0x000009a8:    68c2        .h      LDR      r2,[r0,#0xc]
        0x000009aa:    438a        .C      BICS     r2,r2,r1
        0x000009ac:    60c2        .`      STR      r2,[r0,#0xc]
        0x000009ae:    4c1d        .L      LDR      r4,[pc,#116] ; [0xa24] = 0x40020000
        0x000009b0:    6820         h      LDR      r0,[r4,#0]
        0x000009b2:    2140        @!      MOVS     r1,#0x40
        0x000009b4:    4308        .C      ORRS     r0,r0,r1
        0x000009b6:    6020         `      STR      r0,[r4,#0]
        0x000009b8:    207c        |       MOVS     r0,#0x7c
        0x000009ba:    6120         a      STR      r0,[r4,#0x10]
        0x000009bc:    6920         i      LDR      r0,[r4,#0x10]
        0x000009be:    1c40        @.      ADDS     r0,r0,#1
        0x000009c0:    0081        ..      LSLS     r1,r0,#2
        0x000009c2:    4819        .H      LDR      r0,[pc,#100] ; [0xa28] = 0x20000000
        0x000009c4:    6800        .h      LDR      r0,[r0,#0]
        0x000009c6:    f7fffbd7    ....    BL       __aeabi_uidiv ; 0x178
        0x000009ca:    4601        .F      MOV      r1,r0
        0x000009cc:    a017        ..      ADR      r0,{pc}+0x60 ; 0xa2c
        0x000009ce:    f000fab7    ....    BL       __0printf$8 ; 0xf40
        0x000009d2:    6861        ah      LDR      r1,[r4,#4]
        0x000009d4:    20fe        .       MOVS     r0,#0xfe
        0x000009d6:    4381        .C      BICS     r1,r1,r0
        0x000009d8:    312a        *1      ADDS     r1,r1,#0x2a
        0x000009da:    6061        a`      STR      r1,[r4,#4]
        0x000009dc:    69a1        .i      LDR      r1,[r4,#0x18]
        0x000009de:    4381        .C      BICS     r1,r1,r0
        0x000009e0:    316a        j1      ADDS     r1,r1,#0x6a
        0x000009e2:    61a1        .a      STR      r1,[r4,#0x18]
        0x000009e4:    69e1        .i      LDR      r1,[r4,#0x1c]
        0x000009e6:    4381        .C      BICS     r1,r1,r0
        0x000009e8:    31aa        .1      ADDS     r1,r1,#0xaa
        0x000009ea:    61e1        .a      STR      r1,[r4,#0x1c]
        0x000009ec:    6a21        !j      LDR      r1,[r4,#0x20]
        0x000009ee:    4381        .C      BICS     r1,r1,r0
        0x000009f0:    31ea        .1      ADDS     r1,r1,#0xea
        0x000009f2:    6221        !b      STR      r1,[r4,#0x20]
        0x000009f4:    6a61        aj      LDR      r1,[r4,#0x24]
        0x000009f6:    4381        .C      BICS     r1,r1,r0
        0x000009f8:    1c89        ..      ADDS     r1,r1,#2
        0x000009fa:    6261        ab      STR      r1,[r4,#0x24]
        0x000009fc:    6aa1        .j      LDR      r1,[r4,#0x28]
        0x000009fe:    4381        .C      BICS     r1,r1,r0
        0x00000a00:    3108        .1      ADDS     r1,r1,#8
        0x00000a02:    62a1        .b      STR      r1,[r4,#0x28]
        0x00000a04:    6ae1        .j      LDR      r1,[r4,#0x2c]
        0x00000a06:    4381        .C      BICS     r1,r1,r0
        0x00000a08:    1c89        ..      ADDS     r1,r1,#2
        0x00000a0a:    62e1        .b      STR      r1,[r4,#0x2c]
        0x00000a0c:    6b21        !k      LDR      r1,[r4,#0x30]
        0x00000a0e:    4381        .C      BICS     r1,r1,r0
        0x00000a10:    3108        .1      ADDS     r1,r1,#8
        0x00000a12:    6321        !c      STR      r1,[r4,#0x30]
        0x00000a14:    6820         h      LDR      r0,[r4,#0]
        0x00000a16:    2180        .!      MOVS     r1,#0x80
        0x00000a18:    4308        .C      ORRS     r0,r0,r1
        0x00000a1a:    6020         `      STR      r0,[r4,#0]
        0x00000a1c:    02c8        ..      LSLS     r0,r1,#11
        0x00000a1e:    4908        .I      LDR      r1,[pc,#32] ; [0xa40] = 0xe000e100
        0x00000a20:    6008        .`      STR      r0,[r1,#0]
        0x00000a22:    bd10        ..      POP      {r4,pc}
    $d
        0x00000a24:    40020000    ...@    DCD    1073872896
        0x00000a28:    20000000    ...     DCD    536870912
        0x00000a2c:    20433249    I2C     DCD    541274697
        0x00000a30:    636f6c63    cloc    DCD    1668246627
        0x00000a34:    6425206b    k %d    DCD    1680154731
        0x00000a38:    0a7a4820     Hz.    DCD    175786016
        0x00000a3c:    00000000    ....    DCD    0
        0x00000a40:    e000e100    ....    DCD    3758153984
    $t
    i.I2C_SlaveTRx
    I2C_SlaveTRx
        0x00000a44:    b5f8        ..      PUSH     {r3-r7,lr}
        0x00000a46:    263c        <&      MOVS     r6,#0x3c
        0x00000a48:    4c40        @L      LDR      r4,[pc,#256] ; [0xb4c] = 0x40020000
        0x00000a4a:    2860        `(      CMP      r0,#0x60
        0x00000a4c:    d012        ..      BEQ      0xa74 ; I2C_SlaveTRx + 48
        0x00000a4e:    2500        .%      MOVS     r5,#0
        0x00000a50:    4f3f        ?O      LDR      r7,[pc,#252] ; [0xb50] = 0x2000000c
        0x00000a52:    2880        .(      CMP      r0,#0x80
        0x00000a54:    d013        ..      BEQ      0xa7e ; I2C_SlaveTRx + 58
        0x00000a56:    28a8        .(      CMP      r0,#0xa8
        0x00000a58:    d040        @.      BEQ      0xadc ; I2C_SlaveTRx + 152
        0x00000a5a:    493e        >I      LDR      r1,[pc,#248] ; [0xb54] = 0x20000050
        0x00000a5c:    28b8        .(      CMP      r0,#0xb8
        0x00000a5e:    d05c        \.      BEQ      0xb1a ; I2C_SlaveTRx + 214
        0x00000a60:    28c0        .(      CMP      r0,#0xc0
        0x00000a62:    d066        f.      BEQ      0xb32 ; I2C_SlaveTRx + 238
        0x00000a64:    2888        .(      CMP      r0,#0x88
        0x00000a66:    d005        ..      BEQ      0xa74 ; I2C_SlaveTRx + 48
        0x00000a68:    28a0        .(      CMP      r0,#0xa0
        0x00000a6a:    d003        ..      BEQ      0xa74 ; I2C_SlaveTRx + 48
        0x00000a6c:    4601        .F      MOV      r1,r0
        0x00000a6e:    a03a        :.      ADR      r0,{pc}+0xea ; 0xb58
        0x00000a70:    f000fa66    ..f.    BL       __0printf$8 ; 0xf40
        0x00000a74:    6820         h      LDR      r0,[r4,#0]
        0x00000a76:    43b0        .C      BICS     r0,r0,r6
        0x00000a78:    300c        .0      ADDS     r0,r0,#0xc
        0x00000a7a:    6020         `      STR      r0,[r4,#0]
        0x00000a7c:    bdf8        ..      POP      {r3-r7,pc}
        0x00000a7e:    68a0        .h      LDR      r0,[r4,#8]
        0x00000a80:    4934        4I      LDR      r1,[pc,#208] ; [0xb54] = 0x20000050
        0x00000a82:    79ba        .y      LDRB     r2,[r7,#6]
        0x00000a84:    3110        .1      ADDS     r1,r1,#0x10
        0x00000a86:    5488        .T      STRB     r0,[r1,r2]
        0x00000a88:    79b8        .y      LDRB     r0,[r7,#6]
        0x00000a8a:    1c40        @.      ADDS     r0,r0,#1
        0x00000a8c:    71b8        .q      STRB     r0,[r7,#6]
        0x00000a8e:    68a0        .h      LDR      r0,[r4,#8]
        0x00000a90:    0600        ..      LSLS     r0,r0,#24
        0x00000a92:    0e00        ..      LSRS     r0,r0,#24
        0x00000a94:    d1ee        ..      BNE      0xa74 ; I2C_SlaveTRx + 48
        0x00000a96:    7938        8y      LDRB     r0,[r7,#4]
        0x00000a98:    1c40        @.      ADDS     r0,r0,#1
        0x00000a9a:    7138        8q      STRB     r0,[r7,#4]
        0x00000a9c:    7938        8y      LDRB     r0,[r7,#4]
        0x00000a9e:    2810        .(      CMP      r0,#0x10
        0x00000aa0:    d100        ..      BNE      0xaa4 ; I2C_SlaveTRx + 96
        0x00000aa2:    713d        =q      STRB     r5,[r7,#4]
        0x00000aa4:    7938        8y      LDRB     r0,[r7,#4]
        0x00000aa6:    78f9        .x      LDRB     r1,[r7,#3]
        0x00000aa8:    4288        .B      CMP      r0,r1
        0x00000aaa:    d106        ..      BNE      0xaba ; I2C_SlaveTRx + 118
        0x00000aac:    78f8        .x      LDRB     r0,[r7,#3]
        0x00000aae:    1c40        @.      ADDS     r0,r0,#1
        0x00000ab0:    70f8        .p      STRB     r0,[r7,#3]
        0x00000ab2:    78f8        .x      LDRB     r0,[r7,#3]
        0x00000ab4:    2810        .(      CMP      r0,#0x10
        0x00000ab6:    d100        ..      BNE      0xaba ; I2C_SlaveTRx + 118
        0x00000ab8:    70fd        .p      STRB     r5,[r7,#3]
        0x00000aba:    7938        8y      LDRB     r0,[r7,#4]
        0x00000abc:    492e        .I      LDR      r1,[pc,#184] ; [0xb78] = 0x20000170
        0x00000abe:    0100        ..      LSLS     r0,r0,#4
        0x00000ac0:    1840        @.      ADDS     r0,r0,r1
        0x00000ac2:    39ff        .9      SUBS     r1,r1,#0xff
        0x00000ac4:    2210        ."      MOVS     r2,#0x10
        0x00000ac6:    3911        .9      SUBS     r1,r1,#0x11
        0x00000ac8:    f7fffb92    ....    BL       __aeabi_memcpy ; 0x1f0
        0x00000acc:    4821        !H      LDR      r0,[pc,#132] ; [0xb54] = 0x20000050
        0x00000ace:    3820         8      SUBS     r0,r0,#0x20
        0x00000ad0:    6305        .c      STR      r5,[r0,#0x30]
        0x00000ad2:    6345        Ec      STR      r5,[r0,#0x34]
        0x00000ad4:    6385        .c      STR      r5,[r0,#0x38]
        0x00000ad6:    63c5        .c      STR      r5,[r0,#0x3c]
        0x00000ad8:    71bd        .q      STRB     r5,[r7,#6]
        0x00000ada:    e7cb        ..      B        0xa74 ; I2C_SlaveTRx + 48
        0x00000adc:    7878        xx      LDRB     r0,[r7,#1]
        0x00000ade:    78b9        .x      LDRB     r1,[r7,#2]
        0x00000ae0:    4288        .B      CMP      r0,r1
        0x00000ae2:    d107        ..      BNE      0xaf4 ; I2C_SlaveTRx + 176
        0x00000ae4:    60a5        .`      STR      r5,[r4,#8]
        0x00000ae6:    481b        .H      LDR      r0,[pc,#108] ; [0xb54] = 0x20000050
        0x00000ae8:    3820         8      SUBS     r0,r0,#0x20
        0x00000aea:    6205        .b      STR      r5,[r0,#0x20]
        0x00000aec:    6245        Eb      STR      r5,[r0,#0x24]
        0x00000aee:    6285        .b      STR      r5,[r0,#0x28]
        0x00000af0:    62c5        .b      STR      r5,[r0,#0x2c]
        0x00000af2:    e7bf        ..      B        0xa74 ; I2C_SlaveTRx + 48
        0x00000af4:    7878        xx      LDRB     r0,[r7,#1]
        0x00000af6:    4917        .I      LDR      r1,[pc,#92] ; [0xb54] = 0x20000050
        0x00000af8:    0100        ..      LSLS     r0,r0,#4
        0x00000afa:    3120         1      ADDS     r1,r1,#0x20
        0x00000afc:    1841        A.      ADDS     r1,r0,r1
        0x00000afe:    2210        ."      MOVS     r2,#0x10
        0x00000b00:    4814        .H      LDR      r0,[pc,#80] ; [0xb54] = 0x20000050
        0x00000b02:    f7fffb75    ..u.    BL       __aeabi_memcpy ; 0x1f0
        0x00000b06:    2080        .       MOVS     r0,#0x80
        0x00000b08:    60a0        .`      STR      r0,[r4,#8]
        0x00000b0a:    7878        xx      LDRB     r0,[r7,#1]
        0x00000b0c:    1c40        @.      ADDS     r0,r0,#1
        0x00000b0e:    7078        xp      STRB     r0,[r7,#1]
        0x00000b10:    7878        xx      LDRB     r0,[r7,#1]
        0x00000b12:    2810        .(      CMP      r0,#0x10
        0x00000b14:    d1ae        ..      BNE      0xa74 ; I2C_SlaveTRx + 48
        0x00000b16:    707d        }p      STRB     r5,[r7,#1]
        0x00000b18:    e7ac        ..      B        0xa74 ; I2C_SlaveTRx + 48
        0x00000b1a:    7978        xy      LDRB     r0,[r7,#5]
        0x00000b1c:    2810        .(      CMP      r0,#0x10
        0x00000b1e:    d006        ..      BEQ      0xb2e ; I2C_SlaveTRx + 234
        0x00000b20:    7978        xy      LDRB     r0,[r7,#5]
        0x00000b22:    1809        ..      ADDS     r1,r1,r0
        0x00000b24:    1c40        @.      ADDS     r0,r0,#1
        0x00000b26:    7178        xq      STRB     r0,[r7,#5]
        0x00000b28:    7808        .x      LDRB     r0,[r1,#0]
        0x00000b2a:    60a0        .`      STR      r0,[r4,#8]
        0x00000b2c:    e7a2        ..      B        0xa74 ; I2C_SlaveTRx + 48
        0x00000b2e:    60a5        .`      STR      r5,[r4,#8]
        0x00000b30:    e7a0        ..      B        0xa74 ; I2C_SlaveTRx + 48
        0x00000b32:    7978        xy      LDRB     r0,[r7,#5]
        0x00000b34:    2810        .(      CMP      r0,#0x10
        0x00000b36:    d007        ..      BEQ      0xb48 ; I2C_SlaveTRx + 260
        0x00000b38:    7978        xy      LDRB     r0,[r7,#5]
        0x00000b3a:    1809        ..      ADDS     r1,r1,r0
        0x00000b3c:    1c40        @.      ADDS     r0,r0,#1
        0x00000b3e:    7178        xq      STRB     r0,[r7,#5]
        0x00000b40:    7808        .x      LDRB     r0,[r1,#0]
        0x00000b42:    60a0        .`      STR      r0,[r4,#8]
        0x00000b44:    717d        }q      STRB     r5,[r7,#5]
        0x00000b46:    e795        ..      B        0xa74 ; I2C_SlaveTRx + 48
        0x00000b48:    60a5        .`      STR      r5,[r4,#8]
        0x00000b4a:    e7fb        ..      B        0xb44 ; I2C_SlaveTRx + 256
    $d
        0x00000b4c:    40020000    ...@    DCD    1073872896
        0x00000b50:    2000000c    ...     DCD    536870924
        0x00000b54:    20000050    P..     DCD    536870992
        0x00000b58:    74617453    Stat    DCD    1952543827
        0x00000b5c:    30207375    us 0    DCD    807433077
        0x00000b60:    20782578    x%x     DCD    544744824
        0x00000b64:    4e207369    is N    DCD    1310749545
        0x00000b68:    7020544f    OT p    DCD    1881166927
        0x00000b6c:    65636f72    roce    DCD    1701015410
        0x00000b70:    64657373    ssed    DCD    1684370291
        0x00000b74:    0000000a    ....    DCD    10
        0x00000b78:    20000170    p..     DCD    536871280
    $t
    i.ReadPanel
    ReadPanel
        0x00000b7c:    b5f0        ..      PUSH     {r4-r7,lr}
        0x00000b7e:    b08b        ..      SUB      sp,sp,#0x2c
        0x00000b80:    2118        .!      MOVS     r1,#0x18
        0x00000b82:    a804        ..      ADD      r0,sp,#0x10
        0x00000b84:    f7fffb4d    ..M.    BL       __aeabi_memclr ; 0x222
        0x00000b88:    2400        .$      MOVS     r4,#0
        0x00000b8a:    4e4c        LN      LDR      r6,[pc,#304] ; [0xcbc] = 0x2000000c
        0x00000b8c:    4627        'F      MOV      r7,r4
        0x00000b8e:    0720         .      LSLS     r0,r4,#28
        0x00000b90:    d501        ..      BPL      0xb96 ; ReadPanel + 26
        0x00000b92:    2201        ."      MOVS     r2,#1
        0x00000b94:    e000        ..      B        0xb98 ; ReadPanel + 28
        0x00000b96:    2200        ."      MOVS     r2,#0
        0x00000b98:    2107        .!      MOVS     r1,#7
        0x00000b9a:    2003        .       MOVS     r0,#3
        0x00000b9c:    f000f984    ....    BL       SetPin ; 0xea8
        0x00000ba0:    0760        `.      LSLS     r0,r4,#29
        0x00000ba2:    d501        ..      BPL      0xba8 ; ReadPanel + 44
        0x00000ba4:    2201        ."      MOVS     r2,#1
        0x00000ba6:    e000        ..      B        0xbaa ; ReadPanel + 46
        0x00000ba8:    2200        ."      MOVS     r2,#0
        0x00000baa:    2106        .!      MOVS     r1,#6
        0x00000bac:    2003        .       MOVS     r0,#3
        0x00000bae:    f000f97b    ..{.    BL       SetPin ; 0xea8
        0x00000bb2:    07a0        ..      LSLS     r0,r4,#30
        0x00000bb4:    d501        ..      BPL      0xbba ; ReadPanel + 62
        0x00000bb6:    2201        ."      MOVS     r2,#1
        0x00000bb8:    e000        ..      B        0xbbc ; ReadPanel + 64
        0x00000bba:    2200        ."      MOVS     r2,#0
        0x00000bbc:    2103        .!      MOVS     r1,#3
        0x00000bbe:    4608        .F      MOV      r0,r1
        0x00000bc0:    f000f972    ..r.    BL       SetPin ; 0xea8
        0x00000bc4:    07e0        ..      LSLS     r0,r4,#31
        0x00000bc6:    d001        ..      BEQ      0xbcc ; ReadPanel + 80
        0x00000bc8:    2201        ."      MOVS     r2,#1
        0x00000bca:    e000        ..      B        0xbce ; ReadPanel + 82
        0x00000bcc:    2200        ."      MOVS     r2,#0
        0x00000bce:    2102        .!      MOVS     r1,#2
        0x00000bd0:    2003        .       MOVS     r0,#3
        0x00000bd2:    f000f969    ..i.    BL       SetPin ; 0xea8
        0x00000bd6:    2500        .%      MOVS     r5,#0
        0x00000bd8:    2c08        .,      CMP      r4,#8
        0x00000bda:    d00a        ..      BEQ      0xbf2 ; ReadPanel + 118
        0x00000bdc:    2c0a        .,      CMP      r4,#0xa
        0x00000bde:    d008        ..      BEQ      0xbf2 ; ReadPanel + 118
        0x00000be0:    2c0c        .,      CMP      r4,#0xc
        0x00000be2:    d006        ..      BEQ      0xbf2 ; ReadPanel + 118
        0x00000be4:    4629        )F      MOV      r1,r5
        0x00000be6:    2000        .       MOVS     r0,#0
        0x00000be8:    f7fffea4    ....    BL       GetPin ; 0x934
        0x00000bec:    2800        .(      CMP      r0,#0
        0x00000bee:    d04e        N.      BEQ      0xc8e ; ReadPanel + 274
        0x00000bf0:    e058        X.      B        0xca4 ; ReadPanel + 296
        0x00000bf2:    4620         F      MOV      r0,r4
        0x00000bf4:    3808        .8      SUBS     r0,r0,#8
        0x00000bf6:    0fc1        ..      LSRS     r1,r0,#31
        0x00000bf8:    1808        ..      ADDS     r0,r1,r0
        0x00000bfa:    1040        @.      ASRS     r0,r0,#1
        0x00000bfc:    00c0        ..      LSLS     r0,r0,#3
        0x00000bfe:    1940        @.      ADDS     r0,r0,r5
        0x00000c00:    b2c2        ..      UXTB     r2,r0
        0x00000c02:    4629        )F      MOV      r1,r5
        0x00000c04:    2000        .       MOVS     r0,#0
        0x00000c06:    f7fffe95    ....    BL       GetPin ; 0x934
        0x00000c0a:    2800        .(      CMP      r0,#0
        0x00000c0c:    a804        ..      ADD      r0,sp,#0x10
        0x00000c0e:    d001        ..      BEQ      0xc14 ; ReadPanel + 152
        0x00000c10:    5487        .T      STRB     r7,[r0,r2]
        0x00000c12:    e047        G.      B        0xca4 ; ReadPanel + 296
        0x00000c14:    5c81        .\      LDRB     r1,[r0,r2]
        0x00000c16:    2900        .)      CMP      r1,#0
        0x00000c18:    d144        D.      BNE      0xca4 ; ReadPanel + 296
        0x00000c1a:    2101        .!      MOVS     r1,#1
        0x00000c1c:    5481        .T      STRB     r1,[r0,r2]
        0x00000c1e:    2096        .       MOVS     r0,#0x96
        0x00000c20:    1a82        ..      SUBS     r2,r0,r2
        0x00000c22:    9700        ..      STR      r7,[sp,#0]
        0x00000c24:    9701        ..      STR      r7,[sp,#4]
        0x00000c26:    9702        ..      STR      r7,[sp,#8]
        0x00000c28:    a125        %.      ADR      r1,{pc}+0x98 ; 0xcc0
        0x00000c2a:    a80a        ..      ADD      r0,sp,#0x28
        0x00000c2c:    9703        ..      STR      r7,[sp,#0xc]
        0x00000c2e:    f000f997    ....    BL       __0sprintf$8 ; 0xf60
        0x00000c32:    2203        ."      MOVS     r2,#3
        0x00000c34:    a90a        ..      ADD      r1,sp,#0x28
        0x00000c36:    4668        hF      MOV      r0,sp
        0x00000c38:    f7fffafe    ....    BL       strncpy ; 0x238
        0x00000c3c:    2201        ."      MOVS     r2,#1
        0x00000c3e:    a122        ".      ADR      r1,{pc}+0x8a ; 0xcc8
        0x00000c40:    4668        hF      MOV      r0,sp
        0x00000c42:    f7fffb06    ....    BL       strncat ; 0x252
        0x00000c46:    f7fffac1    ....    BL       rand ; 0x1cc
        0x00000c4a:    17c1        ..      ASRS     r1,r0,#31
        0x00000c4c:    0e49        I.      LSRS     r1,r1,#25
        0x00000c4e:    1809        ..      ADDS     r1,r1,r0
        0x00000c50:    09c9        ..      LSRS     r1,r1,#7
        0x00000c52:    01c9        ..      LSLS     r1,r1,#7
        0x00000c54:    1a42        B.      SUBS     r2,r0,r1
        0x00000c56:    a11a        ..      ADR      r1,{pc}+0x6a ; 0xcc0
        0x00000c58:    a80a        ..      ADD      r0,sp,#0x28
        0x00000c5a:    f000f981    ....    BL       __0sprintf$8 ; 0xf60
        0x00000c5e:    2203        ."      MOVS     r2,#3
        0x00000c60:    a90a        ..      ADD      r1,sp,#0x28
        0x00000c62:    4668        hF      MOV      r0,sp
        0x00000c64:    f7fffaf5    ....    BL       strncat ; 0x252
        0x00000c68:    78b0        .x      LDRB     r0,[r6,#2]
        0x00000c6a:    4918        .I      LDR      r1,[pc,#96] ; [0xccc] = 0x20000070
        0x00000c6c:    0100        ..      LSLS     r0,r0,#4
        0x00000c6e:    1840        @.      ADDS     r0,r0,r1
        0x00000c70:    2210        ."      MOVS     r2,#0x10
        0x00000c72:    4669        iF      MOV      r1,sp
        0x00000c74:    f7fffabc    ....    BL       __aeabi_memcpy ; 0x1f0
        0x00000c78:    78b0        .x      LDRB     r0,[r6,#2]
        0x00000c7a:    1c40        @.      ADDS     r0,r0,#1
        0x00000c7c:    70b0        .p      STRB     r0,[r6,#2]
        0x00000c7e:    78b0        .x      LDRB     r0,[r6,#2]
        0x00000c80:    2810        .(      CMP      r0,#0x10
        0x00000c82:    d100        ..      BNE      0xc86 ; ReadPanel + 266
        0x00000c84:    70b7        .p      STRB     r7,[r6,#2]
        0x00000c86:    462a        *F      MOV      r2,r5
        0x00000c88:    4621        !F      MOV      r1,r4
        0x00000c8a:    a011        ..      ADR      r0,{pc}+0x46 ; 0xcd0
        0x00000c8c:    e008        ..      B        0xca0 ; ReadPanel + 292
        0x00000c8e:    2c0e        .,      CMP      r4,#0xe
        0x00000c90:    d103        ..      BNE      0xc9a ; ReadPanel + 286
        0x00000c92:    2d04        .-      CMP      r5,#4
        0x00000c94:    d006        ..      BEQ      0xca4 ; ReadPanel + 296
        0x00000c96:    2d05        .-      CMP      r5,#5
        0x00000c98:    d004        ..      BEQ      0xca4 ; ReadPanel + 296
        0x00000c9a:    462a        *F      MOV      r2,r5
        0x00000c9c:    4621        !F      MOV      r1,r4
        0x00000c9e:    a011        ..      ADR      r0,{pc}+0x46 ; 0xce4
        0x00000ca0:    f000f94e    ..N.    BL       __0printf$8 ; 0xf40
        0x00000ca4:    1c6d        m.      ADDS     r5,r5,#1
        0x00000ca6:    b2ed        ..      UXTB     r5,r5
        0x00000ca8:    2d08        .-      CMP      r5,#8
        0x00000caa:    d395        ..      BCC      0xbd8 ; ReadPanel + 92
        0x00000cac:    1c64        d.      ADDS     r4,r4,#1
        0x00000cae:    b2e4        ..      UXTB     r4,r4
        0x00000cb0:    2c10        .,      CMP      r4,#0x10
        0x00000cb2:    d200        ..      BCS      0xcb6 ; ReadPanel + 314
        0x00000cb4:    e76b        k.      B        0xb8e ; ReadPanel + 18
        0x00000cb6:    b00b        ..      ADD      sp,sp,#0x2c
        0x00000cb8:    bdf0        ..      POP      {r4-r7,pc}
    $d
        0x00000cba:    0000        ..      DCW    0
        0x00000cbc:    2000000c    ...     DCD    536870924
        0x00000cc0:    64333025    %03d    DCD    1681076261
        0x00000cc4:    00000000    ....    DCD    0
        0x00000cc8:    0000002c    ,...    DCD    44
        0x00000ccc:    20000070    p..     DCD    536871024
        0x00000cd0:    64616572    read    DCD    1684104562
        0x00000cd4:    706e6920     inp    DCD    1886284064
        0x00000cd8:    25207475    ut %    DCD    622883957
        0x00000cdc:    64252064    d %d    DCD    1680154724
        0x00000ce0:    00000a20     ...    DCD    2592
        0x00000ce4:    64616572    read    DCD    1684104562
        0x00000ce8:    706e6920     inp    DCD    1886284064
        0x00000cec:    69207475    ut i    DCD    1763734645
        0x00000cf0:    2064253a    :%d     DCD    543434042
        0x00000cf4:    64253a6a    j:%d    DCD    1680161386
        0x00000cf8:    00000a20     ...    DCD    2592
    $t
    i.SYS_Init
    SYS_Init
        0x00000cfc:    b570        p.      PUSH     {r4-r6,lr}
        0x00000cfe:    4841        AH      LDR      r0,[pc,#260] ; [0xe04] = 0x50000200
        0x00000d00:    6801        .h      LDR      r1,[r0,#0]
        0x00000d02:    2204        ."      MOVS     r2,#4
        0x00000d04:    4311        .C      ORRS     r1,r1,r2
        0x00000d06:    6001        .`      STR      r1,[r0,#0]
        0x00000d08:    68c1        .h      LDR      r1,[r0,#0xc]
        0x00000d0a:    06c9        ..      LSLS     r1,r1,#27
        0x00000d0c:    d5fc        ..      BPL      0xd08 ; SYS_Init + 12
        0x00000d0e:    6901        .i      LDR      r1,[r0,#0x10]
        0x00000d10:    2207        ."      MOVS     r2,#7
        0x00000d12:    4311        .C      ORRS     r1,r1,r2
        0x00000d14:    6101        .a      STR      r1,[r0,#0x10]
        0x00000d16:    6981        .i      LDR      r1,[r0,#0x18]
        0x00000d18:    0909        ..      LSRS     r1,r1,#4
        0x00000d1a:    0109        ..      LSLS     r1,r1,#4
        0x00000d1c:    6181        .a      STR      r1,[r0,#0x18]
        0x00000d1e:    6981        .i      LDR      r1,[r0,#0x18]
        0x00000d20:    0909        ..      LSRS     r1,r1,#4
        0x00000d22:    0109        ..      LSLS     r1,r1,#4
        0x00000d24:    6181        .a      STR      r1,[r0,#0x18]
        0x00000d26:    6a01        .j      LDR      r1,[r0,#0x20]
        0x00000d28:    2301        .#      MOVS     r3,#1
        0x00000d2a:    041b        ..      LSLS     r3,r3,#16
        0x00000d2c:    4319        .C      ORRS     r1,r1,r3
        0x00000d2e:    6201        .b      STR      r1,[r0,#0x20]
        0x00000d30:    6801        .h      LDR      r1,[r0,#0]
        0x00000d32:    2401        .$      MOVS     r4,#1
        0x00000d34:    4321        !C      ORRS     r1,r1,r4
        0x00000d36:    6001        .`      STR      r1,[r0,#0]
        0x00000d38:    6801        .h      LDR      r1,[r0,#0]
        0x00000d3a:    2405        .$      MOVS     r4,#5
        0x00000d3c:    4321        !C      ORRS     r1,r1,r4
        0x00000d3e:    6001        .`      STR      r1,[r0,#0]
        0x00000d40:    68c1        .h      LDR      r1,[r0,#0xc]
        0x00000d42:    07c9        ..      LSLS     r1,r1,#31
        0x00000d44:    d0fc        ..      BEQ      0xd40 ; SYS_Init + 68
        0x00000d46:    4930        0I      LDR      r1,[pc,#192] ; [0xe08] = 0x4217
        0x00000d48:    6201        .b      STR      r1,[r0,#0x20]
        0x00000d4a:    68c1        .h      LDR      r1,[r0,#0xc]
        0x00000d4c:    0749        I.      LSLS     r1,r1,#29
        0x00000d4e:    d5fc        ..      BPL      0xd4a ; SYS_Init + 78
        0x00000d50:    2415        .$      MOVS     r4,#0x15
        0x00000d52:    68c1        .h      LDR      r1,[r0,#0xc]
        0x00000d54:    4221        !B      TST      r1,r4
        0x00000d56:    d0fc        ..      BEQ      0xd52 ; SYS_Init + 86
        0x00000d58:    6901        .i      LDR      r1,[r0,#0x10]
        0x00000d5a:    08c9        ..      LSRS     r1,r1,#3
        0x00000d5c:    00c9        ..      LSLS     r1,r1,#3
        0x00000d5e:    1c89        ..      ADDS     r1,r1,#2
        0x00000d60:    6101        .a      STR      r1,[r0,#0x10]
        0x00000d62:    211a        .!      MOVS     r1,#0x1a
        0x00000d64:    6101        .a      STR      r1,[r0,#0x10]
        0x00000d66:    21f1        .!      MOVS     r1,#0xf1
        0x00000d68:    0409        ..      LSLS     r1,r1,#16
        0x00000d6a:    6081        .`      STR      r1,[r0,#8]
        0x00000d6c:    2501        .%      MOVS     r5,#1
        0x00000d6e:    062d        -.      LSLS     r5,r5,#24
        0x00000d70:    6145        Ea      STR      r5,[r0,#0x14]
        0x00000d72:    2400        .$      MOVS     r4,#0
        0x00000d74:    6144        Da      STR      r4,[r0,#0x14]
        0x00000d76:    61c4        .a      STR      r4,[r0,#0x1c]
        0x00000d78:    112e        ..      ASRS     r6,r5,#4
        0x00000d7a:    2105        .!      MOVS     r1,#5
        0x00000d7c:    0709        ..      LSLS     r1,r1,#28
        0x00000d7e:    60ce        .`      STR      r6,[r1,#0xc]
        0x00000d80:    60cc        .`      STR      r4,[r1,#0xc]
        0x00000d82:    10ee        ..      ASRS     r6,r5,#3
        0x00000d84:    60ce        .`      STR      r6,[r1,#0xc]
        0x00000d86:    60cc        .`      STR      r4,[r1,#0xc]
        0x00000d88:    4e21        !N      LDR      r6,[pc,#132] ; [0xe10] = 0x20000008
        0x00000d8a:    4c20         L      LDR      r4,[pc,#128] ; [0xe0c] = 0x2faf080
        0x00000d8c:    6034        4`      STR      r4,[r6,#0]
        0x00000d8e:    4e21        !N      LDR      r6,[pc,#132] ; [0xe14] = 0x20000000
        0x00000d90:    6034        4`      STR      r4,[r6,#0]
        0x00000d92:    4e21        !N      LDR      r6,[pc,#132] ; [0xe18] = 0x20000004
        0x00000d94:    2432        2$      MOVS     r4,#0x32
        0x00000d96:    6034        4`      STR      r4,[r6,#0]
        0x00000d98:    6884        .h      LDR      r4,[r0,#8]
        0x00000d9a:    431c        .C      ORRS     r4,r4,r3
        0x00000d9c:    6084        .`      STR      r4,[r0,#8]
        0x00000d9e:    6883        .h      LDR      r3,[r0,#8]
        0x00000da0:    012c        ,.      LSLS     r4,r5,#4
        0x00000da2:    4323        #C      ORRS     r3,r3,r4
        0x00000da4:    6083        .`      STR      r3,[r0,#8]
        0x00000da6:    6943        Ci      LDR      r3,[r0,#0x14]
        0x00000da8:    2403        .$      MOVS     r4,#3
        0x00000daa:    0624        $.      LSLS     r4,r4,#24
        0x00000dac:    43a3        .C      BICS     r3,r3,r4
        0x00000dae:    195b        [.      ADDS     r3,r3,r5
        0x00000db0:    6143        Ca      STR      r3,[r0,#0x14]
        0x00000db2:    6944        Di      LDR      r4,[r0,#0x14]
        0x00000db4:    230c        .#      MOVS     r3,#0xc
        0x00000db6:    439c        .C      BICS     r4,r4,r3
        0x00000db8:    6144        Da      STR      r4,[r0,#0x14]
        0x00000dba:    6944        Di      LDR      r4,[r0,#0x14]
        0x00000dbc:    431c        .C      ORRS     r4,r4,r3
        0x00000dbe:    6144        Da      STR      r4,[r0,#0x14]
        0x00000dc0:    6983        .i      LDR      r3,[r0,#0x18]
        0x00000dc2:    24ff        .$      MOVS     r4,#0xff
        0x00000dc4:    0424        $.      LSLS     r4,r4,#16
        0x00000dc6:    43a3        .C      BICS     r3,r3,r4
        0x00000dc8:    2403        .$      MOVS     r4,#3
        0x00000dca:    0464        d.      LSLS     r4,r4,#17
        0x00000dcc:    191b        ..      ADDS     r3,r3,r4
        0x00000dce:    6183        .a      STR      r3,[r0,#0x18]
        0x00000dd0:    6bc8        .k      LDR      r0,[r1,#0x3c]
        0x00000dd2:    4b12        .K      LDR      r3,[pc,#72] ; [0xe1c] = 0xfffffcfc
        0x00000dd4:    4018        .@      ANDS     r0,r0,r3
        0x00000dd6:    63c8        .c      STR      r0,[r1,#0x3c]
        0x00000dd8:    6bc8        .k      LDR      r0,[r1,#0x3c]
        0x00000dda:    2303        .#      MOVS     r3,#3
        0x00000ddc:    4318        .C      ORRS     r0,r0,r3
        0x00000dde:    63c8        .c      STR      r0,[r1,#0x3c]
        0x00000de0:    6b88        .k      LDR      r0,[r1,#0x38]
        0x00000de2:    0c00        ..      LSRS     r0,r0,#16
        0x00000de4:    0400        ..      LSLS     r0,r0,#16
        0x00000de6:    6388        .c      STR      r0,[r1,#0x38]
        0x00000de8:    6b88        .k      LDR      r0,[r1,#0x38]
        0x00000dea:    23ff        .#      MOVS     r3,#0xff
        0x00000dec:    021b        ..      LSLS     r3,r3,#8
        0x00000dee:    4318        .C      ORRS     r0,r0,r3
        0x00000df0:    6388        .c      STR      r0,[r1,#0x38]
        0x00000df2:    6b48        Hk      LDR      r0,[r1,#0x34]
        0x00000df4:    4b0a        .K      LDR      r3,[pc,#40] ; [0xe20] = 0xfffff8f8
        0x00000df6:    4018        .@      ANDS     r0,r0,r3
        0x00000df8:    6348        Hc      STR      r0,[r1,#0x34]
        0x00000dfa:    6b48        Hk      LDR      r0,[r1,#0x34]
        0x00000dfc:    4310        .C      ORRS     r0,r0,r2
        0x00000dfe:    6348        Hc      STR      r0,[r1,#0x34]
        0x00000e00:    bd70        p.      POP      {r4-r6,pc}
    $d
        0x00000e02:    0000        ..      DCW    0
        0x00000e04:    50000200    ...P    DCD    1342177792
        0x00000e08:    00004217    .B..    DCD    16919
        0x00000e0c:    02faf080    ....    DCD    50000000
        0x00000e10:    20000008    ...     DCD    536870920
        0x00000e14:    20000000    ...     DCD    536870912
        0x00000e18:    20000004    ...     DCD    536870916
        0x00000e1c:    fffffcfc    ....    DCD    4294966524
        0x00000e20:    fffff8f8    ....    DCD    4294965496
    $t
    i.SendChar
    SendChar
        0x00000e24:    b570        p.      PUSH     {r4-r6,lr}
        0x00000e26:    4c0c        .L      LDR      r4,[pc,#48] ; [0xe58] = 0x20000020
        0x00000e28:    4a0a        .J      LDR      r2,[pc,#40] ; [0xe54] = 0x20000270
        0x00000e2a:    7821        !x      LDRB     r1,[r4,#0]
        0x00000e2c:    2500        .%      MOVS     r5,#0
        0x00000e2e:    5450        PT      STRB     r0,[r2,r1]
        0x00000e30:    1c49        I.      ADDS     r1,r1,#1
        0x00000e32:    b2c9        ..      UXTB     r1,r1
        0x00000e34:    7021        !p      STRB     r1,[r4,#0]
        0x00000e36:    5455        UT      STRB     r5,[r2,r1]
        0x00000e38:    1c49        I.      ADDS     r1,r1,#1
        0x00000e3a:    2910        .)      CMP      r1,#0x10
        0x00000e3c:    d203        ..      BCS      0xe46 ; SendChar + 34
        0x00000e3e:    280a        .(      CMP      r0,#0xa
        0x00000e40:    d001        ..      BEQ      0xe46 ; SendChar + 34
        0x00000e42:    2800        .(      CMP      r0,#0
        0x00000e44:    d105        ..      BNE      0xe52 ; SendChar + 46
        0x00000e46:    2200        ."      MOVS     r2,#0
        0x00000e48:    4902        .I      LDR      r1,[pc,#8] ; [0xe54] = 0x20000270
        0x00000e4a:    2004        .       MOVS     r0,#4
        0x00000e4c:    f7fff964    ..d.    BL       SH_DoCommand ; 0x118
        0x00000e50:    7025        %p      STRB     r5,[r4,#0]
        0x00000e52:    bd70        p.      POP      {r4-r6,pc}
    $d
        0x00000e54:    20000270    p..     DCD    536871536
        0x00000e58:    20000020     ..     DCD    536870944
    $t
    i.SetIndicatorLights
    SetIndicatorLights
        0x00000e5c:    b570        p.      PUSH     {r4-r6,lr}
        0x00000e5e:    4b10        .K      LDR      r3,[pc,#64] ; [0xea0] = 0x20000040
        0x00000e60:    2400        .$      MOVS     r4,#0
        0x00000e62:    2501        .%      MOVS     r5,#1
        0x00000e64:    2901        .)      CMP      r1,#1
        0x00000e66:    d002        ..      BEQ      0xe6e ; SetIndicatorLights + 18
        0x00000e68:    2900        .)      CMP      r1,#0
        0x00000e6a:    d002        ..      BEQ      0xe72 ; SetIndicatorLights + 22
        0x00000e6c:    e002        ..      B        0xe74 ; SetIndicatorLights + 24
        0x00000e6e:    541d        .T      STRB     r5,[r3,r0]
        0x00000e70:    e000        ..      B        0xe74 ; SetIndicatorLights + 24
        0x00000e72:    541c        .T      STRB     r4,[r3,r0]
        0x00000e74:    490b        .I      LDR      r1,[pc,#44] ; [0xea4] = 0x50004200
        0x00000e76:    2200        ."      MOVS     r2,#0
        0x00000e78:    630c        .c      STR      r4,[r1,#0x30]
        0x00000e7a:    200f        .       MOVS     r0,#0xf
        0x00000e7c:    63cc        .c      STR      r4,[r1,#0x3c]
        0x00000e7e:    5c1e        .\      LDRB     r6,[r3,r0]
        0x00000e80:    2e01        ..      CMP      r6,#1
        0x00000e82:    d00b        ..      BEQ      0xe9c ; SetIndicatorLights + 64
        0x00000e84:    634c        Lc      STR      r4,[r1,#0x34]
        0x00000e86:    63cd        .c      STR      r5,[r1,#0x3c]
        0x00000e88:    1e40        @.      SUBS     r0,r0,#1
        0x00000e8a:    b2c0        ..      UXTB     r0,r0
        0x00000e8c:    2810        .(      CMP      r0,#0x10
        0x00000e8e:    d3f5        ..      BCC      0xe7c ; SetIndicatorLights + 32
        0x00000e90:    630d        .c      STR      r5,[r1,#0x30]
        0x00000e92:    1c52        R.      ADDS     r2,r2,#1
        0x00000e94:    b2d2        ..      UXTB     r2,r2
        0x00000e96:    2a10        .*      CMP      r2,#0x10
        0x00000e98:    d3ee        ..      BCC      0xe78 ; SetIndicatorLights + 28
        0x00000e9a:    bd70        p.      POP      {r4-r6,pc}
        0x00000e9c:    634d        Mc      STR      r5,[r1,#0x34]
        0x00000e9e:    e7f2        ..      B        0xe86 ; SetIndicatorLights + 42
    $d
        0x00000ea0:    20000040    @..     DCD    536870976
        0x00000ea4:    50004200    .B.P    DCD    1342194176
    $t
    i.SetPin
    SetPin
        0x00000ea8:    0140        @.      LSLS     r0,r0,#5
        0x00000eaa:    0089        ..      LSLS     r1,r1,#2
        0x00000eac:    1840        @.      ADDS     r0,r0,r1
        0x00000eae:    4902        .I      LDR      r1,[pc,#8] ; [0xeb8] = 0x50004200
        0x00000eb0:    1840        @.      ADDS     r0,r0,r1
        0x00000eb2:    6002        .`      STR      r2,[r0,#0]
        0x00000eb4:    4770        pG      BX       lr
    $d
        0x00000eb6:    0000        ..      DCW    0
        0x00000eb8:    50004200    .B.P    DCD    1342194176
    $t
    i.SetPwmLightRing
    SetPwmLightRing
        0x00000ebc:    b53c        <.      PUSH     {r2-r5,lr}
        0x00000ebe:    2200        ."      MOVS     r2,#0
        0x00000ec0:    24f0        .$      MOVS     r4,#0xf0
        0x00000ec2:    9200        ..      STR      r2,[sp,#0]
        0x00000ec4:    4611        .F      MOV      r1,r2
        0x00000ec6:    466b        kF      MOV      r3,sp
        0x00000ec8:    2520         %      MOVS     r5,#0x20
        0x00000eca:    9201        ..      STR      r2,[sp,#4]
        0x00000ecc:    4281        .B      CMP      r1,r0
        0x00000ece:    dd01        ..      BLE      0xed4 ; SetPwmLightRing + 24
        0x00000ed0:    545a        ZT      STRB     r2,[r3,r1]
        0x00000ed2:    e004        ..      B        0xede ; SetPwmLightRing + 34
        0x00000ed4:    4281        .B      CMP      r1,r0
        0x00000ed6:    d101        ..      BNE      0xedc ; SetPwmLightRing + 32
        0x00000ed8:    545c        \T      STRB     r4,[r3,r1]
        0x00000eda:    e000        ..      B        0xede ; SetPwmLightRing + 34
        0x00000edc:    545d        ]T      STRB     r5,[r3,r1]
        0x00000ede:    1c49        I.      ADDS     r1,r1,#1
        0x00000ee0:    b2c9        ..      UXTB     r1,r1
        0x00000ee2:    2908        .)      CMP      r1,#8
        0x00000ee4:    d3f2        ..      BCC      0xecc ; SetPwmLightRing + 16
        0x00000ee6:    4809        .H      LDR      r0,[pc,#36] ; [0xf0c] = 0x40040000
        0x00000ee8:    79d9        .y      LDRB     r1,[r3,#7]
        0x00000eea:    6101        .a      STR      r1,[r0,#0x10]
        0x00000eec:    7999        .y      LDRB     r1,[r3,#6]
        0x00000eee:    61c1        .a      STR      r1,[r0,#0x1c]
        0x00000ef0:    7959        Yy      LDRB     r1,[r3,#5]
        0x00000ef2:    6281        .b      STR      r1,[r0,#0x28]
        0x00000ef4:    7919        .y      LDRB     r1,[r3,#4]
        0x00000ef6:    6341        Ac      STR      r1,[r0,#0x34]
        0x00000ef8:    4805        .H      LDR      r0,[pc,#20] ; [0xf10] = 0x40140000
        0x00000efa:    78d9        .x      LDRB     r1,[r3,#3]
        0x00000efc:    6101        .a      STR      r1,[r0,#0x10]
        0x00000efe:    7899        .x      LDRB     r1,[r3,#2]
        0x00000f00:    61c1        .a      STR      r1,[r0,#0x1c]
        0x00000f02:    7859        Yx      LDRB     r1,[r3,#1]
        0x00000f04:    6281        .b      STR      r1,[r0,#0x28]
        0x00000f06:    7819        .x      LDRB     r1,[r3,#0]
        0x00000f08:    6341        Ac      STR      r1,[r0,#0x34]
        0x00000f0a:    bd3c        <.      POP      {r2-r5,pc}
    $d
        0x00000f0c:    40040000    ...@    DCD    1074003968
        0x00000f10:    40140000    ...@    DCD    1075052544
    $t
    i.SystemInit
    SystemInit
        0x00000f14:    4770        pG      BX       lr
        0x00000f16:    0000        ..      MOVS     r0,r0
    i.UART0_Init
    UART0_Init
        0x00000f18:    2005        .       MOVS     r0,#5
        0x00000f1a:    0700        ..      LSLS     r0,r0,#28
        0x00000f1c:    68c2        .h      LDR      r2,[r0,#0xc]
        0x00000f1e:    2101        .!      MOVS     r1,#1
        0x00000f20:    0409        ..      LSLS     r1,r1,#16
        0x00000f22:    430a        .C      ORRS     r2,r2,r1
        0x00000f24:    60c2        .`      STR      r2,[r0,#0xc]
        0x00000f26:    68c2        .h      LDR      r2,[r0,#0xc]
        0x00000f28:    438a        .C      BICS     r2,r2,r1
        0x00000f2a:    60c2        .`      STR      r2,[r0,#0xc]
        0x00000f2c:    4803        .H      LDR      r0,[pc,#12] ; [0xf3c] = 0x40050000
        0x00000f2e:    4902        .I      LDR      r1,[pc,#8] ; [0xf38] = 0x300001b0
        0x00000f30:    6241        Ab      STR      r1,[r0,#0x24]
        0x00000f32:    2103        .!      MOVS     r1,#3
        0x00000f34:    60c1        .`      STR      r1,[r0,#0xc]
        0x00000f36:    4770        pG      BX       lr
    $d
        0x00000f38:    300001b0    ...0    DCD    805306800
        0x00000f3c:    40050000    ...@    DCD    1074069504
    $t
    i.__0printf$8
    __0printf$8
    __1printf$8
    __2printf
        0x00000f40:    b40f        ..      PUSH     {r0-r3}
        0x00000f42:    b510        ..      PUSH     {r4,lr}
        0x00000f44:    a903        ..      ADD      r1,sp,#0xc
        0x00000f46:    4b04        .K      LDR      r3,[pc,#16] ; [0xf58] = 0x153b
        0x00000f48:    4a04        .J      LDR      r2,[pc,#16] ; [0xf5c] = 0x20000024
        0x00000f4a:    9802        ..      LDR      r0,[sp,#8]
        0x00000f4c:    f000f8b6    ....    BL       _printf_core ; 0x10bc
        0x00000f50:    bc10        ..      POP      {r4}
        0x00000f52:    bc08        ..      POP      {r3}
        0x00000f54:    b004        ..      ADD      sp,sp,#0x10
        0x00000f56:    4718        .G      BX       r3
    $d
        0x00000f58:    0000153b    ;...    DCD    5435
        0x00000f5c:    20000024    $..     DCD    536870948
    $t
    i.__0sprintf$8
    __0sprintf$8
    __1sprintf$8
    __2sprintf
        0x00000f60:    b40f        ..      PUSH     {r0-r3}
        0x00000f62:    b510        ..      PUSH     {r4,lr}
        0x00000f64:    a904        ..      ADD      r1,sp,#0x10
        0x00000f66:    4b07        .K      LDR      r3,[pc,#28] ; [0xf84] = 0x1531
        0x00000f68:    aa02        ..      ADD      r2,sp,#8
        0x00000f6a:    9803        ..      LDR      r0,[sp,#0xc]
        0x00000f6c:    f000f8a6    ....    BL       _printf_core ; 0x10bc
        0x00000f70:    4604        .F      MOV      r4,r0
        0x00000f72:    a902        ..      ADD      r1,sp,#8
        0x00000f74:    2000        .       MOVS     r0,#0
        0x00000f76:    f000fadb    ....    BL       _sputc ; 0x1530
        0x00000f7a:    4620         F      MOV      r0,r4
        0x00000f7c:    bc10        ..      POP      {r4}
        0x00000f7e:    bc08        ..      POP      {r3}
        0x00000f80:    b004        ..      ADD      sp,sp,#0x10
        0x00000f82:    4718        .G      BX       r3
    $d
        0x00000f84:    00001531    1...    DCD    5425
    $t
    i.__ARM_clz
    __ARM_clz
        0x00000f88:    2120         !      MOVS     r1,#0x20
        0x00000f8a:    0c02        ..      LSRS     r2,r0,#16
        0x00000f8c:    d001        ..      BEQ      0xf92 ; __ARM_clz + 10
        0x00000f8e:    2110        .!      MOVS     r1,#0x10
        0x00000f90:    4610        .F      MOV      r0,r2
        0x00000f92:    0a02        ..      LSRS     r2,r0,#8
        0x00000f94:    d001        ..      BEQ      0xf9a ; __ARM_clz + 18
        0x00000f96:    4610        .F      MOV      r0,r2
        0x00000f98:    3908        .9      SUBS     r1,r1,#8
        0x00000f9a:    0902        ..      LSRS     r2,r0,#4
        0x00000f9c:    d001        ..      BEQ      0xfa2 ; __ARM_clz + 26
        0x00000f9e:    4610        .F      MOV      r0,r2
        0x00000fa0:    1f09        ..      SUBS     r1,r1,#4
        0x00000fa2:    0882        ..      LSRS     r2,r0,#2
        0x00000fa4:    d001        ..      BEQ      0xfaa ; __ARM_clz + 34
        0x00000fa6:    4610        .F      MOV      r0,r2
        0x00000fa8:    1e89        ..      SUBS     r1,r1,#2
        0x00000faa:    0842        B.      LSRS     r2,r0,#1
        0x00000fac:    d001        ..      BEQ      0xfb2 ; __ARM_clz + 42
        0x00000fae:    1e88        ..      SUBS     r0,r1,#2
        0x00000fb0:    4770        pG      BX       lr
        0x00000fb2:    1a08        ..      SUBS     r0,r1,r0
        0x00000fb4:    4770        pG      BX       lr
    i.__kernel_poly
    __kernel_poly
        0x00000fb6:    b5f8        ..      PUSH     {r3-r7,lr}
        0x00000fb8:    4604        .F      MOV      r4,r0
        0x00000fba:    1e4f        O.      SUBS     r7,r1,#1
        0x00000fbc:    00c8        ..      LSLS     r0,r1,#3
        0x00000fbe:    3808        .8      SUBS     r0,r0,#8
        0x00000fc0:    1821        !.      ADDS     r1,r4,r0
        0x00000fc2:    4615        .F      MOV      r5,r2
        0x00000fc4:    461e        .F      MOV      r6,r3
        0x00000fc6:    6808        .h      LDR      r0,[r1,#0]
        0x00000fc8:    6849        Ih      LDR      r1,[r1,#4]
        0x00000fca:    463a        :F      MOV      r2,r7
        0x00000fcc:    2306        .#      MOVS     r3,#6
        0x00000fce:    439a        .C      BICS     r2,r2,r3
        0x00000fd0:    d010        ..      BEQ      0xff4 ; __kernel_poly + 62
        0x00000fd2:    462a        *F      MOV      r2,r5
        0x00000fd4:    4633        3F      MOV      r3,r6
        0x00000fd6:    f7fffb77    ..w.    BL       __aeabi_dmul ; 0x6c8
        0x00000fda:    463a        :F      MOV      r2,r7
        0x00000fdc:    00d2        ..      LSLS     r2,r2,#3
        0x00000fde:    3a08        .:      SUBS     r2,r2,#8
        0x00000fe0:    18a3        ..      ADDS     r3,r4,r2
        0x00000fe2:    681a        .h      LDR      r2,[r3,#0]
        0x00000fe4:    1e7f        ..      SUBS     r7,r7,#1
        0x00000fe6:    685b        [h      LDR      r3,[r3,#4]
        0x00000fe8:    f7fff948    ..H.    BL       __aeabi_dadd ; 0x27c
        0x00000fec:    2206        ."      MOVS     r2,#6
        0x00000fee:    463b        ;F      MOV      r3,r7
        0x00000ff0:    4393        .C      BICS     r3,r3,r2
        0x00000ff2:    d1ee        ..      BNE      0xfd2 ; __kernel_poly + 28
        0x00000ff4:    2f02        ./      CMP      r7,#2
        0x00000ff6:    d023        #.      BEQ      0x1040 ; __kernel_poly + 138
        0x00000ff8:    2f04        ./      CMP      r7,#4
        0x00000ffa:    d011        ..      BEQ      0x1020 ; __kernel_poly + 106
        0x00000ffc:    2f06        ./      CMP      r7,#6
        0x00000ffe:    d12f        /.      BNE      0x1060 ; __kernel_poly + 170
        0x00001000:    462a        *F      MOV      r2,r5
        0x00001002:    4633        3F      MOV      r3,r6
        0x00001004:    f7fffb60    ..`.    BL       __aeabi_dmul ; 0x6c8
        0x00001008:    6ae3        .j      LDR      r3,[r4,#0x2c]
        0x0000100a:    6aa2        .j      LDR      r2,[r4,#0x28]
        0x0000100c:    f7fff936    ..6.    BL       __aeabi_dadd ; 0x27c
        0x00001010:    462a        *F      MOV      r2,r5
        0x00001012:    4633        3F      MOV      r3,r6
        0x00001014:    f7fffb58    ..X.    BL       __aeabi_dmul ; 0x6c8
        0x00001018:    6a63        cj      LDR      r3,[r4,#0x24]
        0x0000101a:    6a22        "j      LDR      r2,[r4,#0x20]
        0x0000101c:    f7fff92e    ....    BL       __aeabi_dadd ; 0x27c
        0x00001020:    462a        *F      MOV      r2,r5
        0x00001022:    4633        3F      MOV      r3,r6
        0x00001024:    f7fffb50    ..P.    BL       __aeabi_dmul ; 0x6c8
        0x00001028:    69e3        .i      LDR      r3,[r4,#0x1c]
        0x0000102a:    69a2        .i      LDR      r2,[r4,#0x18]
        0x0000102c:    f7fff926    ..&.    BL       __aeabi_dadd ; 0x27c
        0x00001030:    462a        *F      MOV      r2,r5
        0x00001032:    4633        3F      MOV      r3,r6
        0x00001034:    f7fffb48    ..H.    BL       __aeabi_dmul ; 0x6c8
        0x00001038:    6963        ci      LDR      r3,[r4,#0x14]
        0x0000103a:    6922        "i      LDR      r2,[r4,#0x10]
        0x0000103c:    f7fff91e    ....    BL       __aeabi_dadd ; 0x27c
        0x00001040:    462a        *F      MOV      r2,r5
        0x00001042:    4633        3F      MOV      r3,r6
        0x00001044:    f7fffb40    ..@.    BL       __aeabi_dmul ; 0x6c8
        0x00001048:    68e3        .h      LDR      r3,[r4,#0xc]
        0x0000104a:    68a2        .h      LDR      r2,[r4,#8]
        0x0000104c:    f7fff916    ....    BL       __aeabi_dadd ; 0x27c
        0x00001050:    462a        *F      MOV      r2,r5
        0x00001052:    4633        3F      MOV      r3,r6
        0x00001054:    f7fffb38    ..8.    BL       __aeabi_dmul ; 0x6c8
        0x00001058:    6863        ch      LDR      r3,[r4,#4]
        0x0000105a:    6822        "h      LDR      r2,[r4,#0]
        0x0000105c:    f7fff90e    ....    BL       __aeabi_dadd ; 0x27c
        0x00001060:    bdf8        ..      POP      {r3-r7,pc}
        0x00001062:    0000        ..      MOVS     r0,r0
    i.__mathlib_dbl_divzero
    __mathlib_dbl_divzero
        0x00001064:    2200        ."      MOVS     r2,#0
        0x00001066:    b510        ..      PUSH     {r4,lr}
        0x00001068:    4613        .F      MOV      r3,r2
        0x0000106a:    4610        .F      MOV      r0,r2
        0x0000106c:    4901        .I      LDR      r1,[pc,#4] ; [0x1074] = 0x3ff00000
        0x0000106e:    f7fff9b7    ....    BL       __aeabi_ddiv ; 0x3e0
        0x00001072:    bd10        ..      POP      {r4,pc}
    $d
        0x00001074:    3ff00000    ...?    DCD    1072693248
    $t
    i.__mathlib_dbl_infnan
    __mathlib_dbl_infnan
        0x00001078:    b510        ..      PUSH     {r4,lr}
        0x0000107a:    2201        ."      MOVS     r2,#1
        0x0000107c:    f7fffb8c    ....    BL       __ARM_scalbn ; 0x798
        0x00001080:    bd10        ..      POP      {r4,pc}
    i.__mathlib_dbl_invalid
    __mathlib_dbl_invalid
        0x00001082:    2200        ."      MOVS     r2,#0
        0x00001084:    b510        ..      PUSH     {r4,lr}
        0x00001086:    4613        .F      MOV      r3,r2
        0x00001088:    4610        .F      MOV      r0,r2
        0x0000108a:    4611        .F      MOV      r1,r2
        0x0000108c:    f7fff9a8    ....    BL       __aeabi_ddiv ; 0x3e0
        0x00001090:    bd10        ..      POP      {r4,pc}
    i.__scatterload_copy
    __scatterload_copy
        0x00001092:    e002        ..      B        0x109a ; __scatterload_copy + 8
        0x00001094:    c808        ..      LDM      r0!,{r3}
        0x00001096:    1f12        ..      SUBS     r2,r2,#4
        0x00001098:    c108        ..      STM      r1!,{r3}
        0x0000109a:    2a00        .*      CMP      r2,#0
        0x0000109c:    d1fa        ..      BNE      0x1094 ; __scatterload_copy + 2
        0x0000109e:    4770        pG      BX       lr
    i.__scatterload_null
    __scatterload_null
        0x000010a0:    4770        pG      BX       lr
    i.__scatterload_zeroinit
    __scatterload_zeroinit
        0x000010a2:    2000        .       MOVS     r0,#0
        0x000010a4:    e001        ..      B        0x10aa ; __scatterload_zeroinit + 8
        0x000010a6:    c101        ..      STM      r1!,{r0}
        0x000010a8:    1f12        ..      SUBS     r2,r2,#4
        0x000010aa:    2a00        .*      CMP      r2,#0
        0x000010ac:    d1fb        ..      BNE      0x10a6 ; __scatterload_zeroinit + 4
        0x000010ae:    4770        pG      BX       lr
    i.__set_errno
    __set_errno
        0x000010b0:    4901        .I      LDR      r1,[pc,#4] ; [0x10b8] = 0x2000002c
        0x000010b2:    6008        .`      STR      r0,[r1,#0]
        0x000010b4:    4770        pG      BX       lr
    $d
        0x000010b6:    0000        ..      DCW    0
        0x000010b8:    2000002c    ,..     DCD    536870956
    $t
    i._printf_core
    _printf_core
        0x000010bc:    b5ff        ..      PUSH     {r0-r7,lr}
        0x000010be:    b091        ..      SUB      sp,sp,#0x44
        0x000010c0:    460f        .F      MOV      r7,r1
        0x000010c2:    4605        .F      MOV      r5,r0
        0x000010c4:    2600        .&      MOVS     r6,#0
        0x000010c6:    e006        ..      B        0x10d6 ; _printf_core + 26
        0x000010c8:    2825        %(      CMP      r0,#0x25
        0x000010ca:    d00a        ..      BEQ      0x10e2 ; _printf_core + 38
        0x000010cc:    9a14        ..      LDR      r2,[sp,#0x50]
        0x000010ce:    9913        ..      LDR      r1,[sp,#0x4c]
        0x000010d0:    4790        .G      BLX      r2
        0x000010d2:    1c6d        m.      ADDS     r5,r5,#1
        0x000010d4:    1c76        v.      ADDS     r6,r6,#1
        0x000010d6:    7828        (x      LDRB     r0,[r5,#0]
        0x000010d8:    2800        .(      CMP      r0,#0
        0x000010da:    d1f5        ..      BNE      0x10c8 ; _printf_core + 12
        0x000010dc:    4630        0F      MOV      r0,r6
        0x000010de:    b015        ..      ADD      sp,sp,#0x54
        0x000010e0:    bdf0        ..      POP      {r4-r7,pc}
        0x000010e2:    2400        .$      MOVS     r4,#0
        0x000010e4:    9400        ..      STR      r4,[sp,#0]
        0x000010e6:    2101        .!      MOVS     r1,#1
        0x000010e8:    4af3        .J      LDR      r2,[pc,#972] ; [0x14b8] = 0x12809
        0x000010ea:    9402        ..      STR      r4,[sp,#8]
        0x000010ec:    e000        ..      B        0x10f0 ; _printf_core + 52
        0x000010ee:    4304        .C      ORRS     r4,r4,r0
        0x000010f0:    1c6d        m.      ADDS     r5,r5,#1
        0x000010f2:    782b        +x      LDRB     r3,[r5,#0]
        0x000010f4:    4608        .F      MOV      r0,r1
        0x000010f6:    3b20         ;      SUBS     r3,r3,#0x20
        0x000010f8:    4098        .@      LSLS     r0,r0,r3
        0x000010fa:    4210        .B      TST      r0,r2
        0x000010fc:    d1f7        ..      BNE      0x10ee ; _printf_core + 50
        0x000010fe:    7828        (x      LDRB     r0,[r5,#0]
        0x00001100:    282a        *(      CMP      r0,#0x2a
        0x00001102:    d00e        ..      BEQ      0x1122 ; _printf_core + 102
        0x00001104:    2102        .!      MOVS     r1,#2
        0x00001106:    7828        (x      LDRB     r0,[r5,#0]
        0x00001108:    4602        .F      MOV      r2,r0
        0x0000110a:    3a30        0:      SUBS     r2,r2,#0x30
        0x0000110c:    2a09        .*      CMP      r2,#9
        0x0000110e:    d815        ..      BHI      0x113c ; _printf_core + 128
        0x00001110:    9a00        ..      LDR      r2,[sp,#0]
        0x00001112:    230a        .#      MOVS     r3,#0xa
        0x00001114:    435a        ZC      MULS     r2,r3,r2
        0x00001116:    3a30        0:      SUBS     r2,r2,#0x30
        0x00001118:    1880        ..      ADDS     r0,r0,r2
        0x0000111a:    430c        .C      ORRS     r4,r4,r1
        0x0000111c:    1c6d        m.      ADDS     r5,r5,#1
        0x0000111e:    9000        ..      STR      r0,[sp,#0]
        0x00001120:    e7f1        ..      B        0x1106 ; _printf_core + 74
        0x00001122:    cf01        ..      LDM      r7!,{r0}
        0x00001124:    9000        ..      STR      r0,[sp,#0]
        0x00001126:    2800        .(      CMP      r0,#0
        0x00001128:    da05        ..      BGE      0x1136 ; _printf_core + 122
        0x0000112a:    2001        .       MOVS     r0,#1
        0x0000112c:    0340        @.      LSLS     r0,r0,#13
        0x0000112e:    4304        .C      ORRS     r4,r4,r0
        0x00001130:    9800        ..      LDR      r0,[sp,#0]
        0x00001132:    4240        @B      RSBS     r0,r0,#0
        0x00001134:    9000        ..      STR      r0,[sp,#0]
        0x00001136:    2002        .       MOVS     r0,#2
        0x00001138:    4304        .C      ORRS     r4,r4,r0
        0x0000113a:    1c6d        m.      ADDS     r5,r5,#1
        0x0000113c:    7828        (x      LDRB     r0,[r5,#0]
        0x0000113e:    282e        .(      CMP      r0,#0x2e
        0x00001140:    d115        ..      BNE      0x116e ; _printf_core + 178
        0x00001142:    2004        .       MOVS     r0,#4
        0x00001144:    4304        .C      ORRS     r4,r4,r0
        0x00001146:    7868        hx      LDRB     r0,[r5,#1]
        0x00001148:    1c6d        m.      ADDS     r5,r5,#1
        0x0000114a:    282a        *(      CMP      r0,#0x2a
        0x0000114c:    d10a        ..      BNE      0x1164 ; _printf_core + 168
        0x0000114e:    cf01        ..      LDM      r7!,{r0}
        0x00001150:    1c6d        m.      ADDS     r5,r5,#1
        0x00001152:    9002        ..      STR      r0,[sp,#8]
        0x00001154:    e00b        ..      B        0x116e ; _printf_core + 178
        0x00001156:    9902        ..      LDR      r1,[sp,#8]
        0x00001158:    220a        ."      MOVS     r2,#0xa
        0x0000115a:    4351        QC      MULS     r1,r2,r1
        0x0000115c:    3930        09      SUBS     r1,r1,#0x30
        0x0000115e:    1840        @.      ADDS     r0,r0,r1
        0x00001160:    1c6d        m.      ADDS     r5,r5,#1
        0x00001162:    9002        ..      STR      r0,[sp,#8]
        0x00001164:    7828        (x      LDRB     r0,[r5,#0]
        0x00001166:    4601        .F      MOV      r1,r0
        0x00001168:    3930        09      SUBS     r1,r1,#0x30
        0x0000116a:    2909        .)      CMP      r1,#9
        0x0000116c:    d9f3        ..      BLS      0x1156 ; _printf_core + 154
        0x0000116e:    7828        (x      LDRB     r0,[r5,#0]
        0x00001170:    286c        l(      CMP      r0,#0x6c
        0x00001172:    d010        ..      BEQ      0x1196 ; _printf_core + 218
        0x00001174:    dc06        ..      BGT      0x1184 ; _printf_core + 200
        0x00001176:    284c        L(      CMP      r0,#0x4c
        0x00001178:    d01a        ..      BEQ      0x11b0 ; _printf_core + 244
        0x0000117a:    2868        h(      CMP      r0,#0x68
        0x0000117c:    d00e        ..      BEQ      0x119c ; _printf_core + 224
        0x0000117e:    286a        j(      CMP      r0,#0x6a
        0x00001180:    d117        ..      BNE      0x11b2 ; _printf_core + 246
        0x00001182:    e004        ..      B        0x118e ; _printf_core + 210
        0x00001184:    2874        t(      CMP      r0,#0x74
        0x00001186:    d013        ..      BEQ      0x11b0 ; _printf_core + 244
        0x00001188:    287a        z(      CMP      r0,#0x7a
        0x0000118a:    d112        ..      BNE      0x11b2 ; _printf_core + 246
        0x0000118c:    e010        ..      B        0x11b0 ; _printf_core + 244
        0x0000118e:    2001        .       MOVS     r0,#1
        0x00001190:    0540        @.      LSLS     r0,r0,#21
        0x00001192:    4304        .C      ORRS     r4,r4,r0
        0x00001194:    e00c        ..      B        0x11b0 ; _printf_core + 244
        0x00001196:    2101        .!      MOVS     r1,#1
        0x00001198:    0509        ..      LSLS     r1,r1,#20
        0x0000119a:    e001        ..      B        0x11a0 ; _printf_core + 228
        0x0000119c:    2103        .!      MOVS     r1,#3
        0x0000119e:    0509        ..      LSLS     r1,r1,#20
        0x000011a0:    430c        .C      ORRS     r4,r4,r1
        0x000011a2:    7869        ix      LDRB     r1,[r5,#1]
        0x000011a4:    4281        .B      CMP      r1,r0
        0x000011a6:    d103        ..      BNE      0x11b0 ; _printf_core + 244
        0x000011a8:    2001        .       MOVS     r0,#1
        0x000011aa:    0500        ..      LSLS     r0,r0,#20
        0x000011ac:    1824        $.      ADDS     r4,r4,r0
        0x000011ae:    1c6d        m.      ADDS     r5,r5,#1
        0x000011b0:    1c6d        m.      ADDS     r5,r5,#1
        0x000011b2:    7828        (x      LDRB     r0,[r5,#0]
        0x000011b4:    9003        ..      STR      r0,[sp,#0xc]
        0x000011b6:    286e        n(      CMP      r0,#0x6e
        0x000011b8:    d01e        ..      BEQ      0x11f8 ; _printf_core + 316
        0x000011ba:    dc0c        ..      BGT      0x11d6 ; _printf_core + 282
        0x000011bc:    2863        c(      CMP      r0,#0x63
        0x000011be:    d031        1.      BEQ      0x1224 ; _printf_core + 360
        0x000011c0:    dc04        ..      BGT      0x11cc ; _printf_core + 272
        0x000011c2:    2800        .(      CMP      r0,#0
        0x000011c4:    d08a        ..      BEQ      0x10dc ; _printf_core + 32
        0x000011c6:    2858        X(      CMP      r0,#0x58
        0x000011c8:    d111        ..      BNE      0x11ee ; _printf_core + 306
        0x000011ca:    e0b2        ..      B        0x1332 ; _printf_core + 630
        0x000011cc:    2864        d(      CMP      r0,#0x64
        0x000011ce:    d07b        {.      BEQ      0x12c8 ; _printf_core + 524
        0x000011d0:    2869        i(      CMP      r0,#0x69
        0x000011d2:    d10c        ..      BNE      0x11ee ; _printf_core + 306
        0x000011d4:    e078        x.      B        0x12c8 ; _printf_core + 524
        0x000011d6:    2873        s(      CMP      r0,#0x73
        0x000011d8:    d02d        -.      BEQ      0x1236 ; _printf_core + 378
        0x000011da:    dc04        ..      BGT      0x11e6 ; _printf_core + 298
        0x000011dc:    286f        o(      CMP      r0,#0x6f
        0x000011de:    d070        p.      BEQ      0x12c2 ; _printf_core + 518
        0x000011e0:    2870        p(      CMP      r0,#0x70
        0x000011e2:    d104        ..      BNE      0x11ee ; _printf_core + 306
        0x000011e4:    e0a7        ..      B        0x1336 ; _printf_core + 634
        0x000011e6:    2875        u(      CMP      r0,#0x75
        0x000011e8:    d06c        l.      BEQ      0x12c4 ; _printf_core + 520
        0x000011ea:    2878        x(      CMP      r0,#0x78
        0x000011ec:    d06b        k.      BEQ      0x12c6 ; _printf_core + 522
        0x000011ee:    9a14        ..      LDR      r2,[sp,#0x50]
        0x000011f0:    9913        ..      LDR      r1,[sp,#0x4c]
        0x000011f2:    4790        .G      BLX      r2
        0x000011f4:    1c76        v.      ADDS     r6,r6,#1
        0x000011f6:    e062        b.      B        0x12be ; _printf_core + 514
        0x000011f8:    0260        `.      LSLS     r0,r4,#9
        0x000011fa:    0f40        @.      LSRS     r0,r0,#29
        0x000011fc:    2802        .(      CMP      r0,#2
        0x000011fe:    d007        ..      BEQ      0x1210 ; _printf_core + 340
        0x00001200:    2803        .(      CMP      r0,#3
        0x00001202:    d00a        ..      BEQ      0x121a ; _printf_core + 350
        0x00001204:    2804        .(      CMP      r0,#4
        0x00001206:    6838        8h      LDR      r0,[r7,#0]
        0x00001208:    d00a        ..      BEQ      0x1220 ; _printf_core + 356
        0x0000120a:    6006        .`      STR      r6,[r0,#0]
        0x0000120c:    1d3f        ?.      ADDS     r7,r7,#4
        0x0000120e:    e056        V.      B        0x12be ; _printf_core + 514
        0x00001210:    6838        8h      LDR      r0,[r7,#0]
        0x00001212:    17f1        ..      ASRS     r1,r6,#31
        0x00001214:    6006        .`      STR      r6,[r0,#0]
        0x00001216:    6041        A`      STR      r1,[r0,#4]
        0x00001218:    e7f8        ..      B        0x120c ; _printf_core + 336
        0x0000121a:    6838        8h      LDR      r0,[r7,#0]
        0x0000121c:    8006        ..      STRH     r6,[r0,#0]
        0x0000121e:    e7f5        ..      B        0x120c ; _printf_core + 336
        0x00001220:    7006        .p      STRB     r6,[r0,#0]
        0x00001222:    e7f3        ..      B        0x120c ; _printf_core + 336
        0x00001224:    7838        8x      LDRB     r0,[r7,#0]
        0x00001226:    4669        iF      MOV      r1,sp
        0x00001228:    7408        .t      STRB     r0,[r1,#0x10]
        0x0000122a:    2000        .       MOVS     r0,#0
        0x0000122c:    7448        Ht      STRB     r0,[r1,#0x11]
        0x0000122e:    a804        ..      ADD      r0,sp,#0x10
        0x00001230:    9003        ..      STR      r0,[sp,#0xc]
        0x00001232:    2001        .       MOVS     r0,#1
        0x00001234:    e003        ..      B        0x123e ; _printf_core + 386
        0x00001236:    6838        8h      LDR      r0,[r7,#0]
        0x00001238:    9003        ..      STR      r0,[sp,#0xc]
        0x0000123a:    2000        .       MOVS     r0,#0
        0x0000123c:    43c0        .C      MVNS     r0,r0
        0x0000123e:    1d3f        ?.      ADDS     r7,r7,#4
        0x00001240:    0761        a.      LSLS     r1,r4,#29
        0x00001242:    d50f        ..      BPL      0x1264 ; _printf_core + 424
        0x00001244:    2100        .!      MOVS     r1,#0
        0x00001246:    e001        ..      B        0x124c ; _printf_core + 400
        0x00001248:    9901        ..      LDR      r1,[sp,#4]
        0x0000124a:    1c49        I.      ADDS     r1,r1,#1
        0x0000124c:    9a02        ..      LDR      r2,[sp,#8]
        0x0000124e:    9101        ..      STR      r1,[sp,#4]
        0x00001250:    4291        .B      CMP      r1,r2
        0x00001252:    da13        ..      BGE      0x127c ; _printf_core + 448
        0x00001254:    4281        .B      CMP      r1,r0
        0x00001256:    dbf7        ..      BLT      0x1248 ; _printf_core + 396
        0x00001258:    9a01        ..      LDR      r2,[sp,#4]
        0x0000125a:    9903        ..      LDR      r1,[sp,#0xc]
        0x0000125c:    5c89        .\      LDRB     r1,[r1,r2]
        0x0000125e:    2900        .)      CMP      r1,#0
        0x00001260:    d1f2        ..      BNE      0x1248 ; _printf_core + 396
        0x00001262:    e00b        ..      B        0x127c ; _printf_core + 448
        0x00001264:    2100        .!      MOVS     r1,#0
        0x00001266:    e001        ..      B        0x126c ; _printf_core + 432
        0x00001268:    9901        ..      LDR      r1,[sp,#4]
        0x0000126a:    1c49        I.      ADDS     r1,r1,#1
        0x0000126c:    9101        ..      STR      r1,[sp,#4]
        0x0000126e:    4281        .B      CMP      r1,r0
        0x00001270:    dbfa        ..      BLT      0x1268 ; _printf_core + 428
        0x00001272:    9a01        ..      LDR      r2,[sp,#4]
        0x00001274:    9903        ..      LDR      r1,[sp,#0xc]
        0x00001276:    5c89        .\      LDRB     r1,[r1,r2]
        0x00001278:    2900        .)      CMP      r1,#0
        0x0000127a:    d1f5        ..      BNE      0x1268 ; _printf_core + 428
        0x0000127c:    9901        ..      LDR      r1,[sp,#4]
        0x0000127e:    9800        ..      LDR      r0,[sp,#0]
        0x00001280:    9a13        ..      LDR      r2,[sp,#0x4c]
        0x00001282:    1a40        @.      SUBS     r0,r0,r1
        0x00001284:    9000        ..      STR      r0,[sp,#0]
        0x00001286:    4621        !F      MOV      r1,r4
        0x00001288:    9b14        ..      LDR      r3,[sp,#0x50]
        0x0000128a:    f000f93b    ..;.    BL       _printf_pre_padding ; 0x1504
        0x0000128e:    9901        ..      LDR      r1,[sp,#4]
        0x00001290:    1980        ..      ADDS     r0,r0,r6
        0x00001292:    1846        F.      ADDS     r6,r0,r1
        0x00001294:    e007        ..      B        0x12a6 ; _printf_core + 490
        0x00001296:    9803        ..      LDR      r0,[sp,#0xc]
        0x00001298:    9903        ..      LDR      r1,[sp,#0xc]
        0x0000129a:    7800        .x      LDRB     r0,[r0,#0]
        0x0000129c:    1c49        I.      ADDS     r1,r1,#1
        0x0000129e:    9103        ..      STR      r1,[sp,#0xc]
        0x000012a0:    9a14        ..      LDR      r2,[sp,#0x50]
        0x000012a2:    9913        ..      LDR      r1,[sp,#0x4c]
        0x000012a4:    4790        .G      BLX      r2
        0x000012a6:    9801        ..      LDR      r0,[sp,#4]
        0x000012a8:    1e40        @.      SUBS     r0,r0,#1
        0x000012aa:    9001        ..      STR      r0,[sp,#4]
        0x000012ac:    1c40        @.      ADDS     r0,r0,#1
        0x000012ae:    d1f2        ..      BNE      0x1296 ; _printf_core + 474
        0x000012b0:    4621        !F      MOV      r1,r4
        0x000012b2:    9b14        ..      LDR      r3,[sp,#0x50]
        0x000012b4:    9a13        ..      LDR      r2,[sp,#0x4c]
        0x000012b6:    9800        ..      LDR      r0,[sp,#0]
        0x000012b8:    f000f914    ....    BL       _printf_post_padding ; 0x14e4
        0x000012bc:    1986        ..      ADDS     r6,r0,r6
        0x000012be:    1c6d        m.      ADDS     r5,r5,#1
        0x000012c0:    e709        ..      B        0x10d6 ; _printf_core + 26
        0x000012c2:    e041        A.      B        0x1348 ; _printf_core + 652
        0x000012c4:    e033        3.      B        0x132e ; _printf_core + 626
        0x000012c6:    e034        4.      B        0x1332 ; _printf_core + 630
        0x000012c8:    200a        .       MOVS     r0,#0xa
        0x000012ca:    2100        .!      MOVS     r1,#0
        0x000012cc:    9004        ..      STR      r0,[sp,#0x10]
        0x000012ce:    9105        ..      STR      r1,[sp,#0x14]
        0x000012d0:    0260        `.      LSLS     r0,r4,#9
        0x000012d2:    0f41        A.      LSRS     r1,r0,#29
        0x000012d4:    2902        .)      CMP      r1,#2
        0x000012d6:    d005        ..      BEQ      0x12e4 ; _printf_core + 552
        0x000012d8:    cf01        ..      LDM      r7!,{r0}
        0x000012da:    17c2        ..      ASRS     r2,r0,#31
        0x000012dc:    4694        .F      MOV      r12,r2
        0x000012de:    2903        .)      CMP      r1,#3
        0x000012e0:    d005        ..      BEQ      0x12ee ; _printf_core + 562
        0x000012e2:    e007        ..      B        0x12f4 ; _printf_core + 568
        0x000012e4:    1dff        ..      ADDS     r7,r7,#7
        0x000012e6:    08ff        ..      LSRS     r7,r7,#3
        0x000012e8:    00ff        ..      LSLS     r7,r7,#3
        0x000012ea:    cf03        ..      LDM      r7!,{r0,r1}
        0x000012ec:    e006        ..      B        0x12fc ; _printf_core + 576
        0x000012ee:    b200        ..      SXTH     r0,r0
        0x000012f0:    17c2        ..      ASRS     r2,r0,#31
        0x000012f2:    4694        .F      MOV      r12,r2
        0x000012f4:    2904        .)      CMP      r1,#4
        0x000012f6:    d102        ..      BNE      0x12fe ; _printf_core + 578
        0x000012f8:    b240        @.      SXTB     r0,r0
        0x000012fa:    17c1        ..      ASRS     r1,r0,#31
        0x000012fc:    468c        .F      MOV      r12,r1
        0x000012fe:    2200        ."      MOVS     r2,#0
        0x00001300:    4661        aF      MOV      r1,r12
        0x00001302:    4594        .E      CMP      r12,r2
        0x00001304:    da06        ..      BGE      0x1314 ; _printf_core + 600
        0x00001306:    460a        .F      MOV      r2,r1
        0x00001308:    2100        .!      MOVS     r1,#0
        0x0000130a:    4240        @B      RSBS     r0,r0,#0
        0x0000130c:    4191        .A      SBCS     r1,r1,r2
        0x0000130e:    468c        .F      MOV      r12,r1
        0x00001310:    212d        -!      MOVS     r1,#0x2d
        0x00001312:    e002        ..      B        0x131a ; _printf_core + 606
        0x00001314:    0521        !.      LSLS     r1,r4,#20
        0x00001316:    d504        ..      BPL      0x1322 ; _printf_core + 614
        0x00001318:    212b        +!      MOVS     r1,#0x2b
        0x0000131a:    466a        jF      MOV      r2,sp
        0x0000131c:    7611        .v      STRB     r1,[r2,#0x18]
        0x0000131e:    2101        .!      MOVS     r1,#1
        0x00001320:    e003        ..      B        0x132a ; _printf_core + 622
        0x00001322:    07e1        ..      LSLS     r1,r4,#31
        0x00001324:    d001        ..      BEQ      0x132a ; _printf_core + 622
        0x00001326:    2120         !      MOVS     r1,#0x20
        0x00001328:    e7f7        ..      B        0x131a ; _printf_core + 606
        0x0000132a:    9101        ..      STR      r1,[sp,#4]
        0x0000132c:    e054        T.      B        0x13d8 ; _printf_core + 796
        0x0000132e:    200a        .       MOVS     r0,#0xa
        0x00001330:    e00b        ..      B        0x134a ; _printf_core + 654
        0x00001332:    2010        .       MOVS     r0,#0x10
        0x00001334:    e009        ..      B        0x134a ; _printf_core + 654
        0x00001336:    2010        .       MOVS     r0,#0x10
        0x00001338:    9004        ..      STR      r0,[sp,#0x10]
        0x0000133a:    2100        .!      MOVS     r1,#0
        0x0000133c:    2004        .       MOVS     r0,#4
        0x0000133e:    4304        .C      ORRS     r4,r4,r0
        0x00001340:    2008        .       MOVS     r0,#8
        0x00001342:    9105        ..      STR      r1,[sp,#0x14]
        0x00001344:    9002        ..      STR      r0,[sp,#8]
        0x00001346:    e003        ..      B        0x1350 ; _printf_core + 660
        0x00001348:    2008        .       MOVS     r0,#8
        0x0000134a:    2100        .!      MOVS     r1,#0
        0x0000134c:    9105        ..      STR      r1,[sp,#0x14]
        0x0000134e:    9004        ..      STR      r0,[sp,#0x10]
        0x00001350:    0260        `.      LSLS     r0,r4,#9
        0x00001352:    0f41        A.      LSRS     r1,r0,#29
        0x00001354:    2902        .)      CMP      r1,#2
        0x00001356:    d005        ..      BEQ      0x1364 ; _printf_core + 680
        0x00001358:    cf01        ..      LDM      r7!,{r0}
        0x0000135a:    2200        ."      MOVS     r2,#0
        0x0000135c:    4694        .F      MOV      r12,r2
        0x0000135e:    2903        .)      CMP      r1,#3
        0x00001360:    d006        ..      BEQ      0x1370 ; _printf_core + 692
        0x00001362:    e006        ..      B        0x1372 ; _printf_core + 694
        0x00001364:    1dff        ..      ADDS     r7,r7,#7
        0x00001366:    08ff        ..      LSRS     r7,r7,#3
        0x00001368:    00ff        ..      LSLS     r7,r7,#3
        0x0000136a:    cf03        ..      LDM      r7!,{r0,r1}
        0x0000136c:    468c        .F      MOV      r12,r1
        0x0000136e:    e003        ..      B        0x1378 ; _printf_core + 700
        0x00001370:    b280        ..      UXTH     r0,r0
        0x00001372:    2904        .)      CMP      r1,#4
        0x00001374:    d100        ..      BNE      0x1378 ; _printf_core + 700
        0x00001376:    b2c0        ..      UXTB     r0,r0
        0x00001378:    2100        .!      MOVS     r1,#0
        0x0000137a:    9101        ..      STR      r1,[sp,#4]
        0x0000137c:    0721        !.      LSLS     r1,r4,#28
        0x0000137e:    d52b        +.      BPL      0x13d8 ; _printf_core + 796
        0x00001380:    9903        ..      LDR      r1,[sp,#0xc]
        0x00001382:    2970        p)      CMP      r1,#0x70
        0x00001384:    d006        ..      BEQ      0x1394 ; _printf_core + 728
        0x00001386:    9a04        ..      LDR      r2,[sp,#0x10]
        0x00001388:    2110        .!      MOVS     r1,#0x10
        0x0000138a:    9b05        ..      LDR      r3,[sp,#0x14]
        0x0000138c:    404a        J@      EORS     r2,r2,r1
        0x0000138e:    431a        .C      ORRS     r2,r2,r3
        0x00001390:    d005        ..      BEQ      0x139e ; _printf_core + 738
        0x00001392:    e00e        ..      B        0x13b2 ; _printf_core + 758
        0x00001394:    2140        @!      MOVS     r1,#0x40
        0x00001396:    466a        jF      MOV      r2,sp
        0x00001398:    7611        .v      STRB     r1,[r2,#0x18]
        0x0000139a:    2101        .!      MOVS     r1,#1
        0x0000139c:    e008        ..      B        0x13b0 ; _printf_core + 756
        0x0000139e:    4661        aF      MOV      r1,r12
        0x000013a0:    4301        .C      ORRS     r1,r1,r0
        0x000013a2:    d006        ..      BEQ      0x13b2 ; _printf_core + 758
        0x000013a4:    2130        0!      MOVS     r1,#0x30
        0x000013a6:    466a        jF      MOV      r2,sp
        0x000013a8:    7611        .v      STRB     r1,[r2,#0x18]
        0x000013aa:    9903        ..      LDR      r1,[sp,#0xc]
        0x000013ac:    7651        Qv      STRB     r1,[r2,#0x19]
        0x000013ae:    2102        .!      MOVS     r1,#2
        0x000013b0:    9101        ..      STR      r1,[sp,#4]
        0x000013b2:    9a04        ..      LDR      r2,[sp,#0x10]
        0x000013b4:    2108        .!      MOVS     r1,#8
        0x000013b6:    9b05        ..      LDR      r3,[sp,#0x14]
        0x000013b8:    404a        J@      EORS     r2,r2,r1
        0x000013ba:    431a        .C      ORRS     r2,r2,r3
        0x000013bc:    d10c        ..      BNE      0x13d8 ; _printf_core + 796
        0x000013be:    4661        aF      MOV      r1,r12
        0x000013c0:    4301        .C      ORRS     r1,r1,r0
        0x000013c2:    d101        ..      BNE      0x13c8 ; _printf_core + 780
        0x000013c4:    0761        a.      LSLS     r1,r4,#29
        0x000013c6:    d507        ..      BPL      0x13d8 ; _printf_core + 796
        0x000013c8:    2130        0!      MOVS     r1,#0x30
        0x000013ca:    466a        jF      MOV      r2,sp
        0x000013cc:    7611        .v      STRB     r1,[r2,#0x18]
        0x000013ce:    2101        .!      MOVS     r1,#1
        0x000013d0:    9101        ..      STR      r1,[sp,#4]
        0x000013d2:    9902        ..      LDR      r1,[sp,#8]
        0x000013d4:    1e49        I.      SUBS     r1,r1,#1
        0x000013d6:    9102        ..      STR      r1,[sp,#8]
        0x000013d8:    9903        ..      LDR      r1,[sp,#0xc]
        0x000013da:    2958        X)      CMP      r1,#0x58
        0x000013dc:    d004        ..      BEQ      0x13e8 ; _printf_core + 812
        0x000013de:    a137        7.      ADR      r1,{pc}+0xde ; 0x14bc
        0x000013e0:    9103        ..      STR      r1,[sp,#0xc]
        0x000013e2:    a90f        ..      ADD      r1,sp,#0x3c
        0x000013e4:    910f        ..      STR      r1,[sp,#0x3c]
        0x000013e6:    e00d        ..      B        0x1404 ; _printf_core + 840
        0x000013e8:    a139        9.      ADR      r1,{pc}+0xe8 ; 0x14d0
        0x000013ea:    e7f9        ..      B        0x13e0 ; _printf_core + 804
        0x000013ec:    4661        aF      MOV      r1,r12
        0x000013ee:    9b05        ..      LDR      r3,[sp,#0x14]
        0x000013f0:    9a04        ..      LDR      r2,[sp,#0x10]
        0x000013f2:    f7fff8a5    ....    BL       __aeabi_uldivmod ; 0x540
        0x000013f6:    9b03        ..      LDR      r3,[sp,#0xc]
        0x000013f8:    468c        .F      MOV      r12,r1
        0x000013fa:    5c9b        .\      LDRB     r3,[r3,r2]
        0x000013fc:    9a0f        ..      LDR      r2,[sp,#0x3c]
        0x000013fe:    1e52        R.      SUBS     r2,r2,#1
        0x00001400:    920f        ..      STR      r2,[sp,#0x3c]
        0x00001402:    7013        .p      STRB     r3,[r2,#0]
        0x00001404:    4661        aF      MOV      r1,r12
        0x00001406:    4301        .C      ORRS     r1,r1,r0
        0x00001408:    d1f0        ..      BNE      0x13ec ; _printf_core + 816
        0x0000140a:    980f        ..      LDR      r0,[sp,#0x3c]
        0x0000140c:    a907        ..      ADD      r1,sp,#0x1c
        0x0000140e:    1a08        ..      SUBS     r0,r1,r0
        0x00001410:    3020         0      ADDS     r0,r0,#0x20
        0x00001412:    9003        ..      STR      r0,[sp,#0xc]
        0x00001414:    0760        `.      LSLS     r0,r4,#29
        0x00001416:    d504        ..      BPL      0x1422 ; _printf_core + 870
        0x00001418:    2001        .       MOVS     r0,#1
        0x0000141a:    0400        ..      LSLS     r0,r0,#16
        0x0000141c:    4384        .C      BICS     r4,r4,r0
        0x0000141e:    9802        ..      LDR      r0,[sp,#8]
        0x00001420:    e001        ..      B        0x1426 ; _printf_core + 874
        0x00001422:    2001        .       MOVS     r0,#1
        0x00001424:    9002        ..      STR      r0,[sp,#8]
        0x00001426:    9903        ..      LDR      r1,[sp,#0xc]
        0x00001428:    4288        .B      CMP      r0,r1
        0x0000142a:    dd01        ..      BLE      0x1430 ; _printf_core + 884
        0x0000142c:    1a40        @.      SUBS     r0,r0,r1
        0x0000142e:    e000        ..      B        0x1432 ; _printf_core + 886
        0x00001430:    2000        .       MOVS     r0,#0
        0x00001432:    1841        A.      ADDS     r1,r0,r1
        0x00001434:    9002        ..      STR      r0,[sp,#8]
        0x00001436:    9801        ..      LDR      r0,[sp,#4]
        0x00001438:    1809        ..      ADDS     r1,r1,r0
        0x0000143a:    9800        ..      LDR      r0,[sp,#0]
        0x0000143c:    1a40        @.      SUBS     r0,r0,r1
        0x0000143e:    9000        ..      STR      r0,[sp,#0]
        0x00001440:    03e0        ..      LSLS     r0,r4,#15
        0x00001442:    d406        ..      BMI      0x1452 ; _printf_core + 918
        0x00001444:    4621        !F      MOV      r1,r4
        0x00001446:    9b14        ..      LDR      r3,[sp,#0x50]
        0x00001448:    9a13        ..      LDR      r2,[sp,#0x4c]
        0x0000144a:    9800        ..      LDR      r0,[sp,#0]
        0x0000144c:    f000f85a    ..Z.    BL       _printf_pre_padding ; 0x1504
        0x00001450:    1986        ..      ADDS     r6,r0,r6
        0x00001452:    2000        .       MOVS     r0,#0
        0x00001454:    9004        ..      STR      r0,[sp,#0x10]
        0x00001456:    e008        ..      B        0x146a ; _printf_core + 942
        0x00001458:    a906        ..      ADD      r1,sp,#0x18
        0x0000145a:    5c08        .\      LDRB     r0,[r1,r0]
        0x0000145c:    9a14        ..      LDR      r2,[sp,#0x50]
        0x0000145e:    9913        ..      LDR      r1,[sp,#0x4c]
        0x00001460:    4790        .G      BLX      r2
        0x00001462:    9804        ..      LDR      r0,[sp,#0x10]
        0x00001464:    1c40        @.      ADDS     r0,r0,#1
        0x00001466:    1c76        v.      ADDS     r6,r6,#1
        0x00001468:    9004        ..      STR      r0,[sp,#0x10]
        0x0000146a:    9901        ..      LDR      r1,[sp,#4]
        0x0000146c:    4288        .B      CMP      r0,r1
        0x0000146e:    dbf3        ..      BLT      0x1458 ; _printf_core + 924
        0x00001470:    03e0        ..      LSLS     r0,r4,#15
        0x00001472:    d50c        ..      BPL      0x148e ; _printf_core + 978
        0x00001474:    4621        !F      MOV      r1,r4
        0x00001476:    9b14        ..      LDR      r3,[sp,#0x50]
        0x00001478:    9a13        ..      LDR      r2,[sp,#0x4c]
        0x0000147a:    9800        ..      LDR      r0,[sp,#0]
        0x0000147c:    f000f842    ..B.    BL       _printf_pre_padding ; 0x1504
        0x00001480:    1986        ..      ADDS     r6,r0,r6
        0x00001482:    e004        ..      B        0x148e ; _printf_core + 978
        0x00001484:    9a14        ..      LDR      r2,[sp,#0x50]
        0x00001486:    2030        0       MOVS     r0,#0x30
        0x00001488:    9913        ..      LDR      r1,[sp,#0x4c]
        0x0000148a:    4790        .G      BLX      r2
        0x0000148c:    1c76        v.      ADDS     r6,r6,#1
        0x0000148e:    9902        ..      LDR      r1,[sp,#8]
        0x00001490:    1e48        H.      SUBS     r0,r1,#1
        0x00001492:    9002        ..      STR      r0,[sp,#8]
        0x00001494:    2900        .)      CMP      r1,#0
        0x00001496:    dcf5        ..      BGT      0x1484 ; _printf_core + 968
        0x00001498:    e008        ..      B        0x14ac ; _printf_core + 1008
        0x0000149a:    980f        ..      LDR      r0,[sp,#0x3c]
        0x0000149c:    990f        ..      LDR      r1,[sp,#0x3c]
        0x0000149e:    7800        .x      LDRB     r0,[r0,#0]
        0x000014a0:    1c49        I.      ADDS     r1,r1,#1
        0x000014a2:    910f        ..      STR      r1,[sp,#0x3c]
        0x000014a4:    9a14        ..      LDR      r2,[sp,#0x50]
        0x000014a6:    9913        ..      LDR      r1,[sp,#0x4c]
        0x000014a8:    4790        .G      BLX      r2
        0x000014aa:    1c76        v.      ADDS     r6,r6,#1
        0x000014ac:    9903        ..      LDR      r1,[sp,#0xc]
        0x000014ae:    1e48        H.      SUBS     r0,r1,#1
        0x000014b0:    9003        ..      STR      r0,[sp,#0xc]
        0x000014b2:    2900        .)      CMP      r1,#0
        0x000014b4:    dcf1        ..      BGT      0x149a ; _printf_core + 990
        0x000014b6:    e6fb        ..      B        0x12b0 ; _printf_core + 500
    $d
        0x000014b8:    00012809    .(..    DCD    75785
        0x000014bc:    33323130    0123    DCD    858927408
        0x000014c0:    37363534    4567    DCD    926299444
        0x000014c4:    62613938    89ab    DCD    1650538808
        0x000014c8:    66656463    cdef    DCD    1717920867
        0x000014cc:    00000000    ....    DCD    0
        0x000014d0:    33323130    0123    DCD    858927408
        0x000014d4:    37363534    4567    DCD    926299444
        0x000014d8:    42413938    89AB    DCD    1111570744
        0x000014dc:    46454443    CDEF    DCD    1178944579
        0x000014e0:    00000000    ....    DCD    0
    $t
    i._printf_post_padding
    _printf_post_padding
        0x000014e4:    b5f8        ..      PUSH     {r3-r7,lr}
        0x000014e6:    4604        .F      MOV      r4,r0
        0x000014e8:    2500        .%      MOVS     r5,#0
        0x000014ea:    461e        .F      MOV      r6,r3
        0x000014ec:    4617        .F      MOV      r7,r2
        0x000014ee:    0488        ..      LSLS     r0,r1,#18
        0x000014f0:    d404        ..      BMI      0x14fc ; _printf_post_padding + 24
        0x000014f2:    e005        ..      B        0x1500 ; _printf_post_padding + 28
        0x000014f4:    4639        9F      MOV      r1,r7
        0x000014f6:    2020                MOVS     r0,#0x20
        0x000014f8:    47b0        .G      BLX      r6
        0x000014fa:    1c6d        m.      ADDS     r5,r5,#1
        0x000014fc:    1e64        d.      SUBS     r4,r4,#1
        0x000014fe:    d5f9        ..      BPL      0x14f4 ; _printf_post_padding + 16
        0x00001500:    4628        (F      MOV      r0,r5
        0x00001502:    bdf8        ..      POP      {r3-r7,pc}
    i._printf_pre_padding
    _printf_pre_padding
        0x00001504:    b5ff        ..      PUSH     {r0-r7,lr}
        0x00001506:    4604        .F      MOV      r4,r0
        0x00001508:    2500        .%      MOVS     r5,#0
        0x0000150a:    b081        ..      SUB      sp,sp,#4
        0x0000150c:    461e        .F      MOV      r6,r3
        0x0000150e:    03c8        ..      LSLS     r0,r1,#15
        0x00001510:    d501        ..      BPL      0x1516 ; _printf_pre_padding + 18
        0x00001512:    2730        0'      MOVS     r7,#0x30
        0x00001514:    e000        ..      B        0x1518 ; _printf_pre_padding + 20
        0x00001516:    2720         '      MOVS     r7,#0x20
        0x00001518:    0488        ..      LSLS     r0,r1,#18
        0x0000151a:    d504        ..      BPL      0x1526 ; _printf_pre_padding + 34
        0x0000151c:    e005        ..      B        0x152a ; _printf_pre_padding + 38
        0x0000151e:    4638        8F      MOV      r0,r7
        0x00001520:    9903        ..      LDR      r1,[sp,#0xc]
        0x00001522:    47b0        .G      BLX      r6
        0x00001524:    1c6d        m.      ADDS     r5,r5,#1
        0x00001526:    1e64        d.      SUBS     r4,r4,#1
        0x00001528:    d5f9        ..      BPL      0x151e ; _printf_pre_padding + 26
        0x0000152a:    4628        (F      MOV      r0,r5
        0x0000152c:    b005        ..      ADD      sp,sp,#0x14
        0x0000152e:    bdf0        ..      POP      {r4-r7,pc}
    i._sputc
    _sputc
        0x00001530:    680a        .h      LDR      r2,[r1,#0]
        0x00001532:    1c53        S.      ADDS     r3,r2,#1
        0x00001534:    600b        .`      STR      r3,[r1,#0]
        0x00001536:    7010        .p      STRB     r0,[r2,#0]
        0x00001538:    4770        pG      BX       lr
    i.fputc
    fputc
        0x0000153a:    b510        ..      PUSH     {r4,lr}
        0x0000153c:    4604        .F      MOV      r4,r0
        0x0000153e:    f7fffc71    ..q.    BL       SendChar ; 0xe24
        0x00001542:    4620         F      MOV      r0,r4
        0x00001544:    bd10        ..      POP      {r4,pc}
        0x00001546:    0000        ..      MOVS     r0,r0
    i.log
    log
        0x00001548:    b5f0        ..      PUSH     {r4-r7,lr}
        0x0000154a:    4ac5        .J      LDR      r2,[pc,#788] ; [0x1860] = 0x7ff00000
        0x0000154c:    2400        .$      MOVS     r4,#0
        0x0000154e:    b08f        ..      SUB      sp,sp,#0x3c
        0x00001550:    4291        .B      CMP      r1,r2
        0x00001552:    da0a        ..      BGE      0x156a ; log + 34
        0x00001554:    004b        K.      LSLS     r3,r1,#1
        0x00001556:    085b        [.      LSRS     r3,r3,#1
        0x00001558:    4293        .B      CMP      r3,r2
        0x0000155a:    d806        ..      BHI      0x156a ; log + 34
        0x0000155c:    2501        .%      MOVS     r5,#1
        0x0000155e:    004a        J.      LSLS     r2,r1,#1
        0x00001560:    056d        m.      LSLS     r5,r5,#21
        0x00001562:    42ea        .B      CMN      r2,r5
        0x00001564:    d105        ..      BNE      0x1572 ; log + 42
        0x00001566:    2800        .(      CMP      r0,#0
        0x00001568:    d003        ..      BEQ      0x1572 ; log + 42
        0x0000156a:    f7fffd85    ....    BL       __mathlib_dbl_infnan ; 0x1078
        0x0000156e:    b00f        ..      ADD      sp,sp,#0x3c
        0x00001570:    bdf0        ..      POP      {r4-r7,pc}
        0x00001572:    2501        .%      MOVS     r5,#1
        0x00001574:    052d        -.      LSLS     r5,r5,#20
        0x00001576:    42a9        .B      CMP      r1,r5
        0x00001578:    da19        ..      BGE      0x15ae ; log + 102
        0x0000157a:    4303        .C      ORRS     r3,r3,r0
        0x0000157c:    d008        ..      BEQ      0x1590 ; log + 72
        0x0000157e:    2900        .)      CMP      r1,#0
        0x00001580:    da10        ..      BGE      0x15a4 ; log + 92
        0x00001582:    2001        .       MOVS     r0,#1
        0x00001584:    f7fffd94    ....    BL       __set_errno ; 0x10b0
        0x00001588:    f7fffd7b    ..{.    BL       __mathlib_dbl_invalid ; 0x1082
        0x0000158c:    b00f        ..      ADD      sp,sp,#0x3c
        0x0000158e:    bdf0        ..      POP      {r4-r7,pc}
        0x00001590:    2002        .       MOVS     r0,#2
        0x00001592:    f7fffd8d    ....    BL       __set_errno ; 0x10b0
        0x00001596:    f7fffd65    ..e.    BL       __mathlib_dbl_divzero ; 0x1064
        0x0000159a:    2201        ."      MOVS     r2,#1
        0x0000159c:    07d2        ..      LSLS     r2,r2,#31
        0x0000159e:    4051        Q@      EORS     r1,r1,r2
        0x000015a0:    b00f        ..      ADD      sp,sp,#0x3c
        0x000015a2:    bdf0        ..      POP      {r4-r7,pc}
        0x000015a4:    2435        5$      MOVS     r4,#0x35
        0x000015a6:    43e4        .C      MVNS     r4,r4
        0x000015a8:    2236        6"      MOVS     r2,#0x36
        0x000015aa:    f7fff8f5    ....    BL       __ARM_scalbn ; 0x798
        0x000015ae:    150a        ..      ASRS     r2,r1,#20
        0x000015b0:    4bac        .K      LDR      r3,[pc,#688] ; [0x1864] = 0xfffffc01
        0x000015b2:    1912        ..      ADDS     r2,r2,r4
        0x000015b4:    18d4        ..      ADDS     r4,r2,r3
        0x000015b6:    030a        ..      LSLS     r2,r1,#12
        0x000015b8:    0b12        ..      LSRS     r2,r2,#12
        0x000015ba:    49ab        .I      LDR      r1,[pc,#684] ; [0x1868] = 0x95f64
        0x000015bc:    4bab        .K      LDR      r3,[pc,#684] ; [0x186c] = 0x3ff00000
        0x000015be:    1856        V.      ADDS     r6,r2,r1
        0x000015c0:    402e        .@      ANDS     r6,r6,r5
        0x000015c2:    4631        1F      MOV      r1,r6
        0x000015c4:    4059        Y@      EORS     r1,r1,r3
        0x000015c6:    4311        .C      ORRS     r1,r1,r2
        0x000015c8:    9201        ..      STR      r2,[sp,#4]
        0x000015ca:    1532        2.      ASRS     r2,r6,#20
        0x000015cc:    1912        ..      ADDS     r2,r2,r4
        0x000015ce:    920b        ..      STR      r2,[sp,#0x2c]
        0x000015d0:    2200        ."      MOVS     r2,#0
        0x000015d2:    f7fefef7    ....    BL       __aeabi_dsub ; 0x3c4
        0x000015d6:    9a01        ..      LDR      r2,[sp,#4]
        0x000015d8:    4604        .F      MOV      r4,r0
        0x000015da:    1c92        ..      ADDS     r2,r2,#2
        0x000015dc:    0310        ..      LSLS     r0,r2,#12
        0x000015de:    4ea4        .N      LDR      r6,[pc,#656] ; [0x1870] = 0x978
        0x000015e0:    0b00        ..      LSRS     r0,r0,#12
        0x000015e2:    460d        .F      MOV      r5,r1
        0x000015e4:    447e        ~D      ADD      r6,r6,pc
        0x000015e6:    2803        .(      CMP      r0,#3
        0x000015e8:    d260        `.      BCS      0x16ac ; log + 356
        0x000015ea:    4620         F      MOV      r0,r4
        0x000015ec:    6873        sh      LDR      r3,[r6,#4]
        0x000015ee:    6832        2h      LDR      r2,[r6,#0]
        0x000015f0:    f7fff8e8    ....    BL       __aeabi_cdcmpeq ; 0x7c4
        0x000015f4:    d11c        ..      BNE      0x1630 ; log + 232
        0x000015f6:    980b        ..      LDR      r0,[sp,#0x2c]
        0x000015f8:    2800        .(      CMP      r0,#0
        0x000015fa:    d015        ..      BEQ      0x1628 ; log + 224
        0x000015fc:    f7feff68    ..h.    BL       __aeabi_i2d ; 0x4d0
        0x00001600:    4604        .F      MOV      r4,r0
        0x00001602:    460e        .F      MOV      r6,r1
        0x00001604:    4a9b        .J      LDR      r2,[pc,#620] ; [0x1874] = 0x35793c76
        0x00001606:    4b9c        .K      LDR      r3,[pc,#624] ; [0x1878] = 0x3dea39ef
        0x00001608:    f7fff85e    ..^.    BL       __aeabi_dmul ; 0x6c8
        0x0000160c:    460d        .F      MOV      r5,r1
        0x0000160e:    4607        .F      MOV      r7,r0
        0x00001610:    4a9a        .J      LDR      r2,[pc,#616] ; [0x187c] = 0xfee00000
        0x00001612:    4b9b        .K      LDR      r3,[pc,#620] ; [0x1880] = 0x3fe62e42
        0x00001614:    4620         F      MOV      r0,r4
        0x00001616:    4631        1F      MOV      r1,r6
        0x00001618:    f7fff856    ..V.    BL       __aeabi_dmul ; 0x6c8
        0x0000161c:    463a        :F      MOV      r2,r7
        0x0000161e:    462b        +F      MOV      r3,r5
        0x00001620:    f7fefe2c    ..,.    BL       __aeabi_dadd ; 0x27c
        0x00001624:    b00f        ..      ADD      sp,sp,#0x3c
        0x00001626:    bdf0        ..      POP      {r4-r7,pc}
        0x00001628:    6871        qh      LDR      r1,[r6,#4]
        0x0000162a:    6830        0h      LDR      r0,[r6,#0]
        0x0000162c:    b00f        ..      ADD      sp,sp,#0x3c
        0x0000162e:    bdf0        ..      POP      {r4-r7,pc}
        0x00001630:    4a94        .J      LDR      r2,[pc,#592] ; [0x1884] = 0x55555555
        0x00001632:    4b95        .K      LDR      r3,[pc,#596] ; [0x1888] = 0x3fd55555
        0x00001634:    4620         F      MOV      r0,r4
        0x00001636:    4629        )F      MOV      r1,r5
        0x00001638:    f7fff846    ..F.    BL       __aeabi_dmul ; 0x6c8
        0x0000163c:    2200        ."      MOVS     r2,#0
        0x0000163e:    4b93        .K      LDR      r3,[pc,#588] ; [0x188c] = 0x3fe00000
        0x00001640:    f7fefec6    ....    BL       __aeabi_drsub ; 0x3d0
        0x00001644:    4606        .F      MOV      r6,r0
        0x00001646:    460f        .F      MOV      r7,r1
        0x00001648:    4622        "F      MOV      r2,r4
        0x0000164a:    462b        +F      MOV      r3,r5
        0x0000164c:    4610        .F      MOV      r0,r2
        0x0000164e:    4619        .F      MOV      r1,r3
        0x00001650:    f7fff83a    ..:.    BL       __aeabi_dmul ; 0x6c8
        0x00001654:    4632        2F      MOV      r2,r6
        0x00001656:    463b        ;F      MOV      r3,r7
        0x00001658:    f7fff836    ..6.    BL       __aeabi_dmul ; 0x6c8
        0x0000165c:    4606        .F      MOV      r6,r0
        0x0000165e:    980b        ..      LDR      r0,[sp,#0x2c]
        0x00001660:    460f        .F      MOV      r7,r1
        0x00001662:    2800        .(      CMP      r0,#0
        0x00001664:    d01d        ..      BEQ      0x16a2 ; log + 346
        0x00001666:    f7feff33    ..3.    BL       __aeabi_i2d ; 0x4d0
        0x0000166a:    4a82        .J      LDR      r2,[pc,#520] ; [0x1874] = 0x35793c76
        0x0000166c:    4b82        .K      LDR      r3,[pc,#520] ; [0x1878] = 0x3dea39ef
        0x0000166e:    9105        ..      STR      r1,[sp,#0x14]
        0x00001670:    9004        ..      STR      r0,[sp,#0x10]
        0x00001672:    f7fff829    ..).    BL       __aeabi_dmul ; 0x6c8
        0x00001676:    4632        2F      MOV      r2,r6
        0x00001678:    463b        ;F      MOV      r3,r7
        0x0000167a:    f7fefea9    ....    BL       __aeabi_drsub ; 0x3d0
        0x0000167e:    4622        "F      MOV      r2,r4
        0x00001680:    462b        +F      MOV      r3,r5
        0x00001682:    f7fefe9f    ....    BL       __aeabi_dsub ; 0x3c4
        0x00001686:    4604        .F      MOV      r4,r0
        0x00001688:    460d        .F      MOV      r5,r1
        0x0000168a:    4a7c        |J      LDR      r2,[pc,#496] ; [0x187c] = 0xfee00000
        0x0000168c:    4b7c        |K      LDR      r3,[pc,#496] ; [0x1880] = 0x3fe62e42
        0x0000168e:    9905        ..      LDR      r1,[sp,#0x14]
        0x00001690:    9804        ..      LDR      r0,[sp,#0x10]
        0x00001692:    f7fff819    ....    BL       __aeabi_dmul ; 0x6c8
        0x00001696:    4622        "F      MOV      r2,r4
        0x00001698:    462b        +F      MOV      r3,r5
        0x0000169a:    f7fefe93    ....    BL       __aeabi_dsub ; 0x3c4
        0x0000169e:    b00f        ..      ADD      sp,sp,#0x3c
        0x000016a0:    bdf0        ..      POP      {r4-r7,pc}
        0x000016a2:    460b        .F      MOV      r3,r1
        0x000016a4:    4632        2F      MOV      r2,r6
        0x000016a6:    4620         F      MOV      r0,r4
        0x000016a8:    4629        )F      MOV      r1,r5
        0x000016aa:    e0c4        ..      B        0x1836 ; log + 750
        0x000016ac:    2301        .#      MOVS     r3,#1
        0x000016ae:    2200        ."      MOVS     r2,#0
        0x000016b0:    079b        ..      LSLS     r3,r3,#30
        0x000016b2:    4620         F      MOV      r0,r4
        0x000016b4:    f7fefde2    ....    BL       __aeabi_dadd ; 0x27c
        0x000016b8:    4602        .F      MOV      r2,r0
        0x000016ba:    460b        .F      MOV      r3,r1
        0x000016bc:    4620         F      MOV      r0,r4
        0x000016be:    4629        )F      MOV      r1,r5
        0x000016c0:    f7fefe8e    ....    BL       __aeabi_ddiv ; 0x3e0
        0x000016c4:    4606        .F      MOV      r6,r0
        0x000016c6:    460f        .F      MOV      r7,r1
        0x000016c8:    980b        ..      LDR      r0,[sp,#0x2c]
        0x000016ca:    f7feff01    ....    BL       __aeabi_i2d ; 0x4d0
        0x000016ce:    4632        2F      MOV      r2,r6
        0x000016d0:    463b        ;F      MOV      r3,r7
        0x000016d2:    9105        ..      STR      r1,[sp,#0x14]
        0x000016d4:    9004        ..      STR      r0,[sp,#0x10]
        0x000016d6:    4610        .F      MOV      r0,r2
        0x000016d8:    4619        .F      MOV      r1,r3
        0x000016da:    f7fefff5    ....    BL       __aeabi_dmul ; 0x6c8
        0x000016de:    9109        ..      STR      r1,[sp,#0x24]
        0x000016e0:    900c        ..      STR      r0,[sp,#0x30]
        0x000016e2:    496b        kI      LDR      r1,[pc,#428] ; [0x1890] = 0xfff9eb86
        0x000016e4:    9801        ..      LDR      r0,[sp,#4]
        0x000016e6:    9b09        ..      LDR      r3,[sp,#0x24]
        0x000016e8:    1842        B.      ADDS     r2,r0,r1
        0x000016ea:    9200        ..      STR      r2,[sp,#0]
        0x000016ec:    9a0c        ..      LDR      r2,[sp,#0x30]
        0x000016ee:    4619        .F      MOV      r1,r3
        0x000016f0:    4610        .F      MOV      r0,r2
        0x000016f2:    f7feffe9    ....    BL       __aeabi_dmul ; 0x6c8
        0x000016f6:    4602        .F      MOV      r2,r0
        0x000016f8:    9107        ..      STR      r1,[sp,#0x1c]
        0x000016fa:    900a        ..      STR      r0,[sp,#0x28]
        0x000016fc:    4965        eI      LDR      r1,[pc,#404] ; [0x1894] = 0x6b851
        0x000016fe:    9801        ..      LDR      r0,[sp,#4]
        0x00001700:    1a0b        ..      SUBS     r3,r1,r0
        0x00001702:    4865        eH      LDR      r0,[pc,#404] ; [0x1898] = 0x81c
        0x00001704:    9301        ..      STR      r3,[sp,#4]
        0x00001706:    2103        .!      MOVS     r1,#3
        0x00001708:    4478        xD      ADD      r0,r0,pc
        0x0000170a:    9b07        ..      LDR      r3,[sp,#0x1c]
        0x0000170c:    f7fffc53    ..S.    BL       __kernel_poly ; 0xfb6
        0x00001710:    9b07        ..      LDR      r3,[sp,#0x1c]
        0x00001712:    9a0a        ..      LDR      r2,[sp,#0x28]
        0x00001714:    f7feffd8    ....    BL       __aeabi_dmul ; 0x6c8
        0x00001718:    900e        ..      STR      r0,[sp,#0x38]
        0x0000171a:    485f        _H      LDR      r0,[pc,#380] ; [0x1898] = 0x81c
        0x0000171c:    910d        ..      STR      r1,[sp,#0x34]
        0x0000171e:    2104        .!      MOVS     r1,#4
        0x00001720:    4478        xD      ADD      r0,r0,pc
        0x00001722:    9b07        ..      LDR      r3,[sp,#0x1c]
        0x00001724:    9a0a        ..      LDR      r2,[sp,#0x28]
        0x00001726:    f7fffc46    ..F.    BL       __kernel_poly ; 0xfb6
        0x0000172a:    9b09        ..      LDR      r3,[sp,#0x24]
        0x0000172c:    9a0c        ..      LDR      r2,[sp,#0x30]
        0x0000172e:    f7feffcb    ....    BL       __aeabi_dmul ; 0x6c8
        0x00001732:    9b01        ..      LDR      r3,[sp,#4]
        0x00001734:    9a00        ..      LDR      r2,[sp,#0]
        0x00001736:    431a        .C      ORRS     r2,r2,r3
        0x00001738:    9200        ..      STR      r2,[sp,#0]
        0x0000173a:    9b0d        ..      LDR      r3,[sp,#0x34]
        0x0000173c:    9a0e        ..      LDR      r2,[sp,#0x38]
        0x0000173e:    f7fefd9d    ....    BL       __aeabi_dadd ; 0x27c
        0x00001742:    9a00        ..      LDR      r2,[sp,#0]
        0x00001744:    9101        ..      STR      r1,[sp,#4]
        0x00001746:    900c        ..      STR      r0,[sp,#0x30]
        0x00001748:    2a00        .*      CMP      r2,#0
        0x0000174a:    dd4d        M.      BLE      0x17e8 ; log + 672
        0x0000174c:    2200        ."      MOVS     r2,#0
        0x0000174e:    43d2        .C      MVNS     r2,r2
        0x00001750:    4620         F      MOV      r0,r4
        0x00001752:    4629        )F      MOV      r1,r5
        0x00001754:    f7fff820    .. .    BL       __ARM_scalbn ; 0x798
        0x00001758:    4622        "F      MOV      r2,r4
        0x0000175a:    462b        +F      MOV      r3,r5
        0x0000175c:    f7feffb4    ....    BL       __aeabi_dmul ; 0x6c8
        0x00001760:    9100        ..      STR      r1,[sp,#0]
        0x00001762:    900a        ..      STR      r0,[sp,#0x28]
        0x00001764:    980b        ..      LDR      r0,[sp,#0x2c]
        0x00001766:    2800        .(      CMP      r0,#0
        0x00001768:    d02b        +.      BEQ      0x17c2 ; log + 634
        0x0000176a:    4a42        BJ      LDR      r2,[pc,#264] ; [0x1874] = 0x35793c76
        0x0000176c:    4b42        BK      LDR      r3,[pc,#264] ; [0x1878] = 0x3dea39ef
        0x0000176e:    9905        ..      LDR      r1,[sp,#0x14]
        0x00001770:    9804        ..      LDR      r0,[sp,#0x10]
        0x00001772:    f7feffa9    ....    BL       __aeabi_dmul ; 0x6c8
        0x00001776:    9107        ..      STR      r1,[sp,#0x1c]
        0x00001778:    900e        ..      STR      r0,[sp,#0x38]
        0x0000177a:    9b01        ..      LDR      r3,[sp,#4]
        0x0000177c:    9a0c        ..      LDR      r2,[sp,#0x30]
        0x0000177e:    9900        ..      LDR      r1,[sp,#0]
        0x00001780:    980a        ..      LDR      r0,[sp,#0x28]
        0x00001782:    f7fefd7b    ..{.    BL       __aeabi_dadd ; 0x27c
        0x00001786:    4632        2F      MOV      r2,r6
        0x00001788:    463b        ;F      MOV      r3,r7
        0x0000178a:    f7feff9d    ....    BL       __aeabi_dmul ; 0x6c8
        0x0000178e:    9b07        ..      LDR      r3,[sp,#0x1c]
        0x00001790:    9a0e        ..      LDR      r2,[sp,#0x38]
        0x00001792:    f7fefd73    ..s.    BL       __aeabi_dadd ; 0x27c
        0x00001796:    9b00        ..      LDR      r3,[sp,#0]
        0x00001798:    9a0a        ..      LDR      r2,[sp,#0x28]
        0x0000179a:    f7fefe19    ....    BL       __aeabi_drsub ; 0x3d0
        0x0000179e:    4622        "F      MOV      r2,r4
        0x000017a0:    462b        +F      MOV      r3,r5
        0x000017a2:    f7fefe0f    ....    BL       __aeabi_dsub ; 0x3c4
        0x000017a6:    4604        .F      MOV      r4,r0
        0x000017a8:    460d        .F      MOV      r5,r1
        0x000017aa:    4a34        4J      LDR      r2,[pc,#208] ; [0x187c] = 0xfee00000
        0x000017ac:    4b34        4K      LDR      r3,[pc,#208] ; [0x1880] = 0x3fe62e42
        0x000017ae:    9905        ..      LDR      r1,[sp,#0x14]
        0x000017b0:    9804        ..      LDR      r0,[sp,#0x10]
        0x000017b2:    f7feff89    ....    BL       __aeabi_dmul ; 0x6c8
        0x000017b6:    4622        "F      MOV      r2,r4
        0x000017b8:    462b        +F      MOV      r3,r5
        0x000017ba:    f7fefe03    ....    BL       __aeabi_dsub ; 0x3c4
        0x000017be:    b00f        ..      ADD      sp,sp,#0x3c
        0x000017c0:    bdf0        ..      POP      {r4-r7,pc}
        0x000017c2:    9b01        ..      LDR      r3,[sp,#4]
        0x000017c4:    9a0c        ..      LDR      r2,[sp,#0x30]
        0x000017c6:    980a        ..      LDR      r0,[sp,#0x28]
        0x000017c8:    f7fefd58    ..X.    BL       __aeabi_dadd ; 0x27c
        0x000017cc:    4632        2F      MOV      r2,r6
        0x000017ce:    463b        ;F      MOV      r3,r7
        0x000017d0:    f7feff7a    ..z.    BL       __aeabi_dmul ; 0x6c8
        0x000017d4:    9b00        ..      LDR      r3,[sp,#0]
        0x000017d6:    9a0a        ..      LDR      r2,[sp,#0x28]
        0x000017d8:    f7fefdfa    ....    BL       __aeabi_drsub ; 0x3d0
        0x000017dc:    4622        "F      MOV      r2,r4
        0x000017de:    462b        +F      MOV      r3,r5
        0x000017e0:    f7fefdf6    ....    BL       __aeabi_drsub ; 0x3d0
        0x000017e4:    b00f        ..      ADD      sp,sp,#0x3c
        0x000017e6:    bdf0        ..      POP      {r4-r7,pc}
        0x000017e8:    980b        ..      LDR      r0,[sp,#0x2c]
        0x000017ea:    2800        .(      CMP      r0,#0
        0x000017ec:    d027        '.      BEQ      0x183e ; log + 758
        0x000017ee:    4a21        !J      LDR      r2,[pc,#132] ; [0x1874] = 0x35793c76
        0x000017f0:    4b21        !K      LDR      r3,[pc,#132] ; [0x1878] = 0x3dea39ef
        0x000017f2:    9905        ..      LDR      r1,[sp,#0x14]
        0x000017f4:    9804        ..      LDR      r0,[sp,#0x10]
        0x000017f6:    f7feff67    ..g.    BL       __aeabi_dmul ; 0x6c8
        0x000017fa:    9107        ..      STR      r1,[sp,#0x1c]
        0x000017fc:    9000        ..      STR      r0,[sp,#0]
        0x000017fe:    4620         F      MOV      r0,r4
        0x00001800:    4629        )F      MOV      r1,r5
        0x00001802:    9b01        ..      LDR      r3,[sp,#4]
        0x00001804:    9a0c        ..      LDR      r2,[sp,#0x30]
        0x00001806:    f7fefddd    ....    BL       __aeabi_dsub ; 0x3c4
        0x0000180a:    4632        2F      MOV      r2,r6
        0x0000180c:    463b        ;F      MOV      r3,r7
        0x0000180e:    f7feff5b    ..[.    BL       __aeabi_dmul ; 0x6c8
        0x00001812:    9b07        ..      LDR      r3,[sp,#0x1c]
        0x00001814:    9a00        ..      LDR      r2,[sp,#0]
        0x00001816:    f7fefdd5    ....    BL       __aeabi_dsub ; 0x3c4
        0x0000181a:    4622        "F      MOV      r2,r4
        0x0000181c:    462b        +F      MOV      r3,r5
        0x0000181e:    f7fefdd1    ....    BL       __aeabi_dsub ; 0x3c4
        0x00001822:    4604        .F      MOV      r4,r0
        0x00001824:    460d        .F      MOV      r5,r1
        0x00001826:    4a15        .J      LDR      r2,[pc,#84] ; [0x187c] = 0xfee00000
        0x00001828:    4b15        .K      LDR      r3,[pc,#84] ; [0x1880] = 0x3fe62e42
        0x0000182a:    9905        ..      LDR      r1,[sp,#0x14]
        0x0000182c:    9804        ..      LDR      r0,[sp,#0x10]
        0x0000182e:    f7feff4b    ..K.    BL       __aeabi_dmul ; 0x6c8
        0x00001832:    4622        "F      MOV      r2,r4
        0x00001834:    462b        +F      MOV      r3,r5
        0x00001836:    f7fefdc5    ....    BL       __aeabi_dsub ; 0x3c4
        0x0000183a:    b00f        ..      ADD      sp,sp,#0x3c
        0x0000183c:    bdf0        ..      POP      {r4-r7,pc}
        0x0000183e:    460b        .F      MOV      r3,r1
        0x00001840:    4620         F      MOV      r0,r4
        0x00001842:    4629        )F      MOV      r1,r5
        0x00001844:    9a0c        ..      LDR      r2,[sp,#0x30]
        0x00001846:    f7fefdbd    ....    BL       __aeabi_dsub ; 0x3c4
        0x0000184a:    4632        2F      MOV      r2,r6
        0x0000184c:    463b        ;F      MOV      r3,r7
        0x0000184e:    f7feff3b    ..;.    BL       __aeabi_dmul ; 0x6c8
        0x00001852:    4622        "F      MOV      r2,r4
        0x00001854:    462b        +F      MOV      r3,r5
        0x00001856:    f7fefdbb    ....    BL       __aeabi_drsub ; 0x3d0
        0x0000185a:    b00f        ..      ADD      sp,sp,#0x3c
        0x0000185c:    bdf0        ..      POP      {r4-r7,pc}
    $d
        0x0000185e:    0000        ..      DCW    0
        0x00001860:    7ff00000    ....    DCD    2146435072
        0x00001864:    fffffc01    ....    DCD    4294966273
        0x00001868:    00095f64    d_..    DCD    614244
        0x0000186c:    3ff00000    ...?    DCD    1072693248
        0x00001870:    00000978    x...    DCD    2424
        0x00001874:    35793c76    v<y5    DCD    897137782
        0x00001878:    3dea39ef    .9.=    DCD    1038760431
        0x0000187c:    fee00000    ....    DCD    4276092928
        0x00001880:    3fe62e42    B..?    DCD    1072049730
        0x00001884:    55555555    UUUU    DCD    1431655765
        0x00001888:    3fd55555    UU.?    DCD    1070945621
        0x0000188c:    3fe00000    ...?    DCD    1071644672
        0x00001890:    fff9eb86    ....    DCD    4294568838
        0x00001894:    0006b851    Q...    DCD    440401
        0x00001898:    0000081c    ....    DCD    2076
    $t
    i.main
    main
        0x0000189c:    2500        .%      MOVS     r5,#0
        0x0000189e:    2159        Y!      MOVS     r1,#0x59
        0x000018a0:    2216        ."      MOVS     r2,#0x16
        0x000018a2:    462c        ,F      MOV      r4,r5
        0x000018a4:    4e27        'N      LDR      r6,[pc,#156] ; [0x1944] = 0x50000100
        0x000018a6:    2388        .#      MOVS     r3,#0x88
        0x000018a8:    e002        ..      B        0x18b0 ; main + 20
        0x000018aa:    6031        1`      STR      r1,[r6,#0]
        0x000018ac:    6032        2`      STR      r2,[r6,#0]
        0x000018ae:    6033        3`      STR      r3,[r6,#0]
        0x000018b0:    6830        0h      LDR      r0,[r6,#0]
        0x000018b2:    2801        .(      CMP      r0,#1
        0x000018b4:    d1f9        ..      BNE      0x18aa ; main + 14
        0x000018b6:    f7fffa21    ..!.    BL       SYS_Init ; 0xcfc
        0x000018ba:    2000        .       MOVS     r0,#0
        0x000018bc:    6030        0`      STR      r0,[r6,#0]
        0x000018be:    f7fffb2b    ..+.    BL       UART0_Init ; 0xf18
        0x000018c2:    4821        !H      LDR      r0,[pc,#132] ; [0x1948] = 0x20000000
        0x000018c4:    6801        .h      LDR      r1,[r0,#0]
        0x000018c6:    a021        !.      ADR      r0,{pc}+0x86 ; 0x194c
        0x000018c8:    f7fffb3a    ..:.    BL       __0printf$8 ; 0xf40
        0x000018cc:    a023        #.      ADR      r0,{pc}+0x90 ; 0x195c
        0x000018ce:    f7fffb37    ..7.    BL       __0printf$8 ; 0xf40
        0x000018d2:    a030        0.      ADR      r0,{pc}+0xc2 ; 0x1994
        0x000018d4:    f7fffb34    ..4.    BL       __0printf$8 ; 0xf40
        0x000018d8:    a03c        <.      ADR      r0,{pc}+0xf4 ; 0x19cc
        0x000018da:    f7fffb31    ..1.    BL       __0printf$8 ; 0xf40
        0x000018de:    f000f9cd    ....    BL       setPwm ; 0x1c7c
        0x000018e2:    f000f891    ....    BL       setGpio ; 0x1a08
        0x000018e6:    f000f8e3    ....    BL       setI2c ; 0x1ab0
        0x000018ea:    277d        }'      MOVS     r7,#0x7d
        0x000018ec:    00ff        ..      LSLS     r7,r7,#3
        0x000018ee:    4e45        EN      LDR      r6,[pc,#276] ; [0x1a04] = 0x2710
        0x000018f0:    f7fff944    ..D.    BL       ReadPanel ; 0xb7c
        0x000018f4:    2164        d!      MOVS     r1,#0x64
        0x000018f6:    4628        (F      MOV      r0,r5
        0x000018f8:    f7fefc54    ..T.    BL       __aeabi_idiv ; 0x1a4
        0x000018fc:    2900        .)      CMP      r1,#0
        0x000018fe:    d101        ..      BNE      0x1904 ; main + 104
        0x00001900:    f7feff86    ....    BL       AdcContScanModeTest ; 0x810
        0x00001904:    4639        9F      MOV      r1,r7
        0x00001906:    4628        (F      MOV      r0,r5
        0x00001908:    f7fefc4c    ..L.    BL       __aeabi_idiv ; 0x1a4
        0x0000190c:    2932        2)      CMP      r1,#0x32
        0x0000190e:    d114        ..      BNE      0x193a ; main + 158
        0x00001910:    0fe0        ..      LSRS     r0,r4,#31
        0x00001912:    1900        ..      ADDS     r0,r0,r4
        0x00001914:    1040        @.      ASRS     r0,r0,#1
        0x00001916:    f7fffad1    ....    BL       SetPwmLightRing ; 0xebc
        0x0000191a:    2101        .!      MOVS     r1,#1
        0x0000191c:    4620         F      MOV      r0,r4
        0x0000191e:    f7fffa9d    ....    BL       SetIndicatorLights ; 0xe5c
        0x00001922:    2c01        .,      CMP      r4,#1
        0x00001924:    d501        ..      BPL      0x192a ; main + 142
        0x00001926:    200f        .       MOVS     r0,#0xf
        0x00001928:    e000        ..      B        0x192c ; main + 144
        0x0000192a:    1e60        `.      SUBS     r0,r4,#1
        0x0000192c:    2100        .!      MOVS     r1,#0
        0x0000192e:    f7fffa95    ....    BL       SetIndicatorLights ; 0xe5c
        0x00001932:    1c64        d.      ADDS     r4,r4,#1
        0x00001934:    2c10        .,      CMP      r4,#0x10
        0x00001936:    d100        ..      BNE      0x193a ; main + 158
        0x00001938:    2400        .$      MOVS     r4,#0
        0x0000193a:    1c6d        m.      ADDS     r5,r5,#1
        0x0000193c:    42b5        .B      CMP      r5,r6
        0x0000193e:    ddd7        ..      BLE      0x18f0 ; main + 84
        0x00001940:    2500        .%      MOVS     r5,#0
        0x00001942:    e7d5        ..      B        0x18f0 ; main + 84
    $d
        0x00001944:    50000100    ...P    DCD    1342177536
        0x00001948:    20000000    ...     DCD    536870912
        0x0000194c:    50430a0a    ..CP    DCD    1346570762
        0x00001950:    20402055    U @     DCD    541073493
        0x00001954:    48206425    %d H    DCD    1210082341
        0x00001958:    00000a7a    z...    DCD    2682
        0x0000195c:    2d2d2d2b    +---    DCD    757935403
        0x00001960:    2d2d2d2d    ----    DCD    757935405
        0x00001964:    2d2d2d2d    ----    DCD    757935405
        0x00001968:    2d2d2d2d    ----    DCD    757935405
        0x0000196c:    2d2d2d2d    ----    DCD    757935405
        0x00001970:    2d2d2d2d    ----    DCD    757935405
        0x00001974:    2d2d2d2d    ----    DCD    757935405
        0x00001978:    2d2d2d2d    ----    DCD    757935405
        0x0000197c:    2d2d2d2d    ----    DCD    757935405
        0x00001980:    2d2d2d2d    ----    DCD    757935405
        0x00001984:    2d2d2d2d    ----    DCD    757935405
        0x00001988:    2d2d2d2d    ----    DCD    757935405
        0x0000198c:    0a2b2d2d    --+.    DCD    170601773
        0x00001990:    00000000    ....    DCD    0
        0x00001994:    2020207c    |       DCD    538976380
        0x00001998:    20202020            DCD    538976288
        0x0000199c:    6c6c4120     All    DCD    1819033888
        0x000019a0:    6e615020     Pan    DCD    1851871264
        0x000019a4:    46206c65    el F    DCD    1176530021
        0x000019a8:    74636e75    unct    DCD    1952673397
        0x000019ac:    206e6f69    ion     DCD    544108393
        0x000019b0:    706d6153    Samp    DCD    1886216531
        0x000019b4:    4320656c    le C    DCD    1126196588
        0x000019b8:    2065646f    ode     DCD    543515759
        0x000019bc:    20202020            DCD    538976288
        0x000019c0:    20202020            DCD    538976288
        0x000019c4:    0a7c2020      |.    DCD    175906848
        0x000019c8:    00000000    ....    DCD    0
        0x000019cc:    2d2d2d2b    +---    DCD    757935403
        0x000019d0:    2d2d2d2d    ----    DCD    757935405
        0x000019d4:    2d2d2d2d    ----    DCD    757935405
        0x000019d8:    2d2d2d2d    ----    DCD    757935405
        0x000019dc:    2d2d2d2d    ----    DCD    757935405
        0x000019e0:    2d2d2d2d    ----    DCD    757935405
        0x000019e4:    2d2d2d2d    ----    DCD    757935405
        0x000019e8:    2d2d2d2d    ----    DCD    757935405
        0x000019ec:    2d2d2d2d    ----    DCD    757935405
        0x000019f0:    2d2d2d2d    ----    DCD    757935405
        0x000019f4:    2d2d2d2d    ----    DCD    757935405
        0x000019f8:    2d2d2d2d    ----    DCD    757935405
        0x000019fc:    0a2b2d2d    --+.    DCD    170601773
        0x00001a00:    0000000a    ....    DCD    10
        0x00001a04:    00002710    .'..    DCD    10000
    $t
    i.setGpio
    setGpio
        0x00001a08:    b5f0        ..      PUSH     {r4-r7,lr}
        0x00001a0a:    4827        'H      LDR      r0,[pc,#156] ; [0x1aa8] = 0x50004000
        0x00001a0c:    6801        .h      LDR      r1,[r0,#0]
        0x00001a0e:    0889        ..      LSRS     r1,r1,#2
        0x00001a10:    0089        ..      LSLS     r1,r1,#2
        0x00001a12:    6001        .`      STR      r1,[r0,#0]
        0x00001a14:    6801        .h      LDR      r1,[r0,#0]
        0x00001a16:    220c        ."      MOVS     r2,#0xc
        0x00001a18:    4391        .C      BICS     r1,r1,r2
        0x00001a1a:    6001        .`      STR      r1,[r0,#0]
        0x00001a1c:    6801        .h      LDR      r1,[r0,#0]
        0x00001a1e:    2430        0$      MOVS     r4,#0x30
        0x00001a20:    43a1        .C      BICS     r1,r1,r4
        0x00001a22:    6001        .`      STR      r1,[r0,#0]
        0x00001a24:    6802        .h      LDR      r2,[r0,#0]
        0x00001a26:    21c0        .!      MOVS     r1,#0xc0
        0x00001a28:    438a        .C      BICS     r2,r2,r1
        0x00001a2a:    6002        .`      STR      r2,[r0,#0]
        0x00001a2c:    6802        .h      LDR      r2,[r0,#0]
        0x00001a2e:    008d        ..      LSLS     r5,r1,#2
        0x00001a30:    43aa        .C      BICS     r2,r2,r5
        0x00001a32:    6002        .`      STR      r2,[r0,#0]
        0x00001a34:    6802        .h      LDR      r2,[r0,#0]
        0x00001a36:    010f        ..      LSLS     r7,r1,#4
        0x00001a38:    43ba        .C      BICS     r2,r2,r7
        0x00001a3a:    6002        .`      STR      r2,[r0,#0]
        0x00001a3c:    6802        .h      LDR      r2,[r0,#0]
        0x00001a3e:    018e        ..      LSLS     r6,r1,#6
        0x00001a40:    43b2        .C      BICS     r2,r2,r6
        0x00001a42:    6002        .`      STR      r2,[r0,#0]
        0x00001a44:    6803        .h      LDR      r3,[r0,#0]
        0x00001a46:    020a        ..      LSLS     r2,r1,#8
        0x00001a48:    4393        .C      BICS     r3,r3,r2
        0x00001a4a:    6003        .`      STR      r3,[r0,#0]
        0x00001a4c:    4816        .H      LDR      r0,[pc,#88] ; [0x1aa8] = 0x50004000
        0x00001a4e:    30c0        .0      ADDS     r0,r0,#0xc0
        0x00001a50:    6803        .h      LDR      r3,[r0,#0]
        0x00001a52:    43a3        .C      BICS     r3,r3,r4
        0x00001a54:    3310        .3      ADDS     r3,r3,#0x10
        0x00001a56:    6003        .`      STR      r3,[r0,#0]
        0x00001a58:    6803        .h      LDR      r3,[r0,#0]
        0x00001a5a:    438b        .C      BICS     r3,r3,r1
        0x00001a5c:    3340        @3      ADDS     r3,r3,#0x40
        0x00001a5e:    6003        .`      STR      r3,[r0,#0]
        0x00001a60:    6803        .h      LDR      r3,[r0,#0]
        0x00001a62:    2401        .$      MOVS     r4,#1
        0x00001a64:    43b3        .C      BICS     r3,r3,r6
        0x00001a66:    0324        $.      LSLS     r4,r4,#12
        0x00001a68:    191b        ..      ADDS     r3,r3,r4
        0x00001a6a:    6003        .`      STR      r3,[r0,#0]
        0x00001a6c:    6803        .h      LDR      r3,[r0,#0]
        0x00001a6e:    00a4        ..      LSLS     r4,r4,#2
        0x00001a70:    4393        .C      BICS     r3,r3,r2
        0x00001a72:    191b        ..      ADDS     r3,r3,r4
        0x00001a74:    6003        .`      STR      r3,[r0,#0]
        0x00001a76:    480c        .H      LDR      r0,[pc,#48] ; [0x1aa8] = 0x50004000
        0x00001a78:    3040        @0      ADDS     r0,r0,#0x40
        0x00001a7a:    6803        .h      LDR      r3,[r0,#0]
        0x00001a7c:    43ab        .C      BICS     r3,r3,r5
        0x00001a7e:    33ff        .3      ADDS     r3,r3,#0xff
        0x00001a80:    3301        .3      ADDS     r3,#1
        0x00001a82:    6003        .`      STR      r3,[r0,#0]
        0x00001a84:    6803        .h      LDR      r3,[r0,#0]
        0x00001a86:    1125        %.      ASRS     r5,r4,#4
        0x00001a88:    43bb        .C      BICS     r3,r3,r7
        0x00001a8a:    195b        [.      ADDS     r3,r3,r5
        0x00001a8c:    6003        .`      STR      r3,[r0,#0]
        0x00001a8e:    6803        .h      LDR      r3,[r0,#0]
        0x00001a90:    4393        .C      BICS     r3,r3,r2
        0x00001a92:    191a        ..      ADDS     r2,r3,r4
        0x00001a94:    6002        .`      STR      r2,[r0,#0]
        0x00001a96:    4a05        .J      LDR      r2,[pc,#20] ; [0x1aac] = 0x50004100
        0x00001a98:    6813        .h      LDR      r3,[r2,#0]
        0x00001a9a:    089b        ..      LSRS     r3,r3,#2
        0x00001a9c:    009b        ..      LSLS     r3,r3,#2
        0x00001a9e:    6013        .`      STR      r3,[r2,#0]
        0x00001aa0:    6802        .h      LDR      r2,[r0,#0]
        0x00001aa2:    438a        .C      BICS     r2,r2,r1
        0x00001aa4:    6002        .`      STR      r2,[r0,#0]
        0x00001aa6:    bdf0        ..      POP      {r4-r7,pc}
    $d
        0x00001aa8:    50004000    .@.P    DCD    1342193664
        0x00001aac:    50004100    .A.P    DCD    1342193920
    $t
    i.setI2c
    setI2c
        0x00001ab0:    b570        p.      PUSH     {r4-r6,lr}
        0x00001ab2:    f7feff71    ..q.    BL       I2C0_Init ; 0x998
        0x00001ab6:    481a        .H      LDR      r0,[pc,#104] ; [0x1b20] = 0x40020000
        0x00001ab8:    6801        .h      LDR      r1,[r0,#0]
        0x00001aba:    223c        <"      MOVS     r2,#0x3c
        0x00001abc:    4391        .C      BICS     r1,r1,r2
        0x00001abe:    310c        .1      ADDS     r1,r1,#0xc
        0x00001ac0:    6001        .`      STR      r1,[r0,#0]
        0x00001ac2:    a018        ..      ADR      r0,{pc}+0x62 ; 0x1b24
        0x00001ac4:    f7fffa3c    ..<.    BL       __0printf$8 ; 0xf40
        0x00001ac8:    a025        %.      ADR      r0,{pc}+0x98 ; 0x1b60
        0x00001aca:    f7fffa39    ..9.    BL       __0printf$8 ; 0xf40
        0x00001ace:    a033        3.      ADR      r0,{pc}+0xce ; 0x1b9c
        0x00001ad0:    f7fffa36    ..6.    BL       __0printf$8 ; 0xf40
        0x00001ad4:    a040        @.      ADR      r0,{pc}+0x104 ; 0x1bd8
        0x00001ad6:    f7fffa33    ..3.    BL       __0printf$8 ; 0xf40
        0x00001ada:    a012        ..      ADR      r0,{pc}+0x4a ; 0x1b24
        0x00001adc:    f7fffa30    ..0.    BL       __0printf$8 ; 0xf40
        0x00001ae0:    a04c        L.      ADR      r0,{pc}+0x134 ; 0x1c14
        0x00001ae2:    f7fffa2d    ..-.    BL       __0printf$8 ; 0xf40
        0x00001ae6:    a052        R.      ADR      r0,{pc}+0x14a ; 0x1c30
        0x00001ae8:    f7fffa2a    ..*.    BL       __0printf$8 ; 0xf40
        0x00001aec:    a058        X.      ADR      r0,{pc}+0x164 ; 0x1c50
        0x00001aee:    f7fffa27    ..'.    BL       __0printf$8 ; 0xf40
        0x00001af2:    4960        `I      LDR      r1,[pc,#384] ; [0x1c74] = 0x2000000c
        0x00001af4:    485e        ^H      LDR      r0,[pc,#376] ; [0x1c70] = 0xa45
        0x00001af6:    6088        .`      STR      r0,[r1,#8]
        0x00001af8:    4d5f        _M      LDR      r5,[pc,#380] ; [0x1c78] = 0x20000070
        0x00001afa:    2100        .!      MOVS     r1,#0
        0x00001afc:    1dee        ..      ADDS     r6,r5,#7
        0x00001afe:    460a        .F      MOV      r2,r1
        0x00001b00:    36f9        .6      ADDS     r6,r6,#0xf9
        0x00001b02:    010b        ..      LSLS     r3,r1,#4
        0x00001b04:    2000        .       MOVS     r0,#0
        0x00001b06:    195c        \.      ADDS     r4,r3,r5
        0x00001b08:    199b        ..      ADDS     r3,r3,r6
        0x00001b0a:    5422        "T      STRB     r2,[r4,r0]
        0x00001b0c:    541a        .T      STRB     r2,[r3,r0]
        0x00001b0e:    1c40        @.      ADDS     r0,r0,#1
        0x00001b10:    b2c0        ..      UXTB     r0,r0
        0x00001b12:    2810        .(      CMP      r0,#0x10
        0x00001b14:    d3f9        ..      BCC      0x1b0a ; setI2c + 90
        0x00001b16:    1c49        I.      ADDS     r1,r1,#1
        0x00001b18:    b2c9        ..      UXTB     r1,r1
        0x00001b1a:    2910        .)      CMP      r1,#0x10
        0x00001b1c:    d3f1        ..      BCC      0x1b02 ; setI2c + 82
        0x00001b1e:    bd70        p.      POP      {r4-r6,pc}
    $d
        0x00001b20:    40020000    ...@    DCD    1073872896
        0x00001b24:    2d2d2d2b    +---    DCD    757935403
        0x00001b28:    2d2d2d2d    ----    DCD    757935405
        0x00001b2c:    2d2d2d2d    ----    DCD    757935405
        0x00001b30:    2d2d2d2d    ----    DCD    757935405
        0x00001b34:    2d2d2d2d    ----    DCD    757935405
        0x00001b38:    2d2d2d2d    ----    DCD    757935405
        0x00001b3c:    2d2d2d2d    ----    DCD    757935405
        0x00001b40:    2d2d2d2d    ----    DCD    757935405
        0x00001b44:    2d2d2d2d    ----    DCD    757935405
        0x00001b48:    2d2d2d2d    ----    DCD    757935405
        0x00001b4c:    2d2d2d2d    ----    DCD    757935405
        0x00001b50:    2d2d2d2d    ----    DCD    757935405
        0x00001b54:    2d2d2d2d    ----    DCD    757935405
        0x00001b58:    2d2d2d2d    ----    DCD    757935405
        0x00001b5c:    00000a2b    +...    DCD    2603
        0x00001b60:    4d20207c    |  M    DCD    1293951100
        0x00001b64:    78783530    05xx    DCD    2021143856
        0x00001b68:    43324920     I2C    DCD    1127368992
        0x00001b6c:    69724420     Dri    DCD    1769096224
        0x00001b70:    20726576    ver     DCD    544367990
        0x00001b74:    706d6153    Samp    DCD    1886216531
        0x00001b78:    4320656c    le C    DCD    1126196588
        0x00001b7c:    2865646f    ode(    DCD    677733487
        0x00001b80:    76616c53    Slav    DCD    1986096211
        0x00001b84:    66202965    e) f    DCD    1713383781
        0x00001b88:    6120726f    or a    DCD    1629516399
        0x00001b8c:    73656363    cces    DCD    1936024419
        0x00001b90:    6c532073    s Sl    DCD    1817387123
        0x00001b94:    20657661    ave     DCD    543520353
        0x00001b98:    00000a7c    |...    DCD    2684
        0x00001b9c:    2020207c    |       DCD    538976380
        0x00001ba0:    20202020            DCD    538976288
        0x00001ba4:    20202020            DCD    538976288
        0x00001ba8:    20202020            DCD    538976288
        0x00001bac:    20202020            DCD    538976288
        0x00001bb0:    20202020            DCD    538976288
        0x00001bb4:    20202020            DCD    538976288
        0x00001bb8:    20202020            DCD    538976288
        0x00001bbc:    20202020            DCD    538976288
        0x00001bc0:    20202020            DCD    538976288
        0x00001bc4:    20202020            DCD    538976288
        0x00001bc8:    20202020            DCD    538976288
        0x00001bcc:    20202020            DCD    538976288
        0x00001bd0:    20202020            DCD    538976288
        0x00001bd4:    00000a7c    |...    DCD    2684
        0x00001bd8:    3249207c    | I2    DCD    843653244
        0x00001bdc:    614d2043    C Ma    DCD    1632444483
        0x00001be0:    72657473    ster    DCD    1919251571
        0x00001be4:    32492820     (I2    DCD    843655200
        0x00001be8:    20293043    C0)     DCD    539570243
        0x00001bec:    2d2d2d3c    <---    DCD    757935420
        0x00001bf0:    3249203e    > I2    DCD    843653182
        0x00001bf4:    6c532043    C Sl    DCD    1817387075
        0x00001bf8:    28657661    ave(    DCD    677738081
        0x00001bfc:    30433249    I2C0    DCD    809710153
        0x00001c00:    20202029    )       DCD    538976297
        0x00001c04:    20202020            DCD    538976288
        0x00001c08:    20202020            DCD    538976288
        0x00001c0c:    20202020            DCD    538976288
        0x00001c10:    00000a7c    |...    DCD    2684
        0x00001c14:    666e6f43    Conf    DCD    1718513475
        0x00001c18:    72756769    igur    DCD    1920296809
        0x00001c1c:    32492065    e I2    DCD    843653221
        0x00001c20:    61203043    C0 a    DCD    1629499459
        0x00001c24:    20612073    s a     DCD    543236211
        0x00001c28:    76616c73    slav    DCD    1986096243
        0x00001c2c:    000a2e65    e...    DCD    667237
        0x00001c30:    20656854    The     DCD    543516756
        0x00001c34:    204f2f49    I/O     DCD    542060361
        0x00001c38:    6e6e6f63    conn    DCD    1852731235
        0x00001c3c:    69746365    ecti    DCD    1769235301
        0x00001c40:    66206e6f    on f    DCD    1713401455
        0x00001c44:    4920726f    or I    DCD    1226863215
        0x00001c48:    3a304332    2C0:    DCD    976241458
        0x00001c4c:    0000000a    ....    DCD    10
        0x00001c50:    30433249    I2C0    DCD    809710153
        0x00001c54:    4144535f    _SDA    DCD    1094996831
        0x00001c58:    2e335028    (P3.    DCD    775114792
        0x00001c5c:    202c2934    4),     DCD    539765044
        0x00001c60:    30433249    I2C0    DCD    809710153
        0x00001c64:    4c43535f    _SCL    DCD    1279480671
        0x00001c68:    2e335028    (P3.    DCD    775114792
        0x00001c6c:    000a2935    5)..    DCD    665909
        0x00001c70:    00000a45    E...    DCD    2629
        0x00001c74:    2000000c    ...     DCD    536870924
        0x00001c78:    20000070    p..     DCD    536871024
    $t
    i.setPwm
    setPwm
        0x00001c7c:    b5f8        ..      PUSH     {r3-r7,lr}
        0x00001c7e:    a07a        z.      ADR      r0,{pc}+0x1ea ; 0x1e68
        0x00001c80:    f7fff95e    ..^.    BL       __0printf$8 ; 0xf40
        0x00001c84:    487a        zH      LDR      r0,[pc,#488] ; [0x1e70] = 0x50004080
        0x00001c86:    6801        .h      LDR      r1,[r0,#0]
        0x00001c88:    0889        ..      LSRS     r1,r1,#2
        0x00001c8a:    0089        ..      LSLS     r1,r1,#2
        0x00001c8c:    1c49        I.      ADDS     r1,r1,#1
        0x00001c8e:    6001        .`      STR      r1,[r0,#0]
        0x00001c90:    6801        .h      LDR      r1,[r0,#0]
        0x00001c92:    220c        ."      MOVS     r2,#0xc
        0x00001c94:    4391        .C      BICS     r1,r1,r2
        0x00001c96:    1d09        ..      ADDS     r1,r1,#4
        0x00001c98:    6001        .`      STR      r1,[r0,#0]
        0x00001c9a:    6801        .h      LDR      r1,[r0,#0]
        0x00001c9c:    2230        0"      MOVS     r2,#0x30
        0x00001c9e:    4391        .C      BICS     r1,r1,r2
        0x00001ca0:    3110        .1      ADDS     r1,r1,#0x10
        0x00001ca2:    6001        .`      STR      r1,[r0,#0]
        0x00001ca4:    6801        .h      LDR      r1,[r0,#0]
        0x00001ca6:    22c0        ."      MOVS     r2,#0xc0
        0x00001ca8:    4391        .C      BICS     r1,r1,r2
        0x00001caa:    3140        @1      ADDS     r1,r1,#0x40
        0x00001cac:    6001        .`      STR      r1,[r0,#0]
        0x00001cae:    6801        .h      LDR      r1,[r0,#0]
        0x00001cb0:    0094        ..      LSLS     r4,r2,#2
        0x00001cb2:    43a1        .C      BICS     r1,r1,r4
        0x00001cb4:    31ff        .1      ADDS     r1,r1,#0xff
        0x00001cb6:    3101        .1      ADDS     r1,#1
        0x00001cb8:    6001        .`      STR      r1,[r0,#0]
        0x00001cba:    6801        .h      LDR      r1,[r0,#0]
        0x00001cbc:    0112        ..      LSLS     r2,r2,#4
        0x00001cbe:    4391        .C      BICS     r1,r1,r2
        0x00001cc0:    2201        ."      MOVS     r2,#1
        0x00001cc2:    0292        ..      LSLS     r2,r2,#10
        0x00001cc4:    1889        ..      ADDS     r1,r1,r2
        0x00001cc6:    6001        .`      STR      r1,[r0,#0]
        0x00001cc8:    6801        .h      LDR      r1,[r0,#0]
        0x00001cca:    0125        %.      LSLS     r5,r4,#4
        0x00001ccc:    43a9        .C      BICS     r1,r1,r5
        0x00001cce:    0092        ..      LSLS     r2,r2,#2
        0x00001cd0:    1889        ..      ADDS     r1,r1,r2
        0x00001cd2:    6001        .`      STR      r1,[r0,#0]
        0x00001cd4:    6801        .h      LDR      r1,[r0,#0]
        0x00001cd6:    01a2        ..      LSLS     r2,r4,#6
        0x00001cd8:    4391        .C      BICS     r1,r1,r2
        0x00001cda:    2201        ."      MOVS     r2,#1
        0x00001cdc:    0392        ..      LSLS     r2,r2,#14
        0x00001cde:    1889        ..      ADDS     r1,r1,r2
        0x00001ce0:    6001        .`      STR      r1,[r0,#0]
        0x00001ce2:    4864        dH      LDR      r0,[pc,#400] ; [0x1e74] = 0x40040000
        0x00001ce4:    6881        .h      LDR      r1,[r0,#8]
        0x00001ce6:    2308        .#      MOVS     r3,#8
        0x00001ce8:    4319        .C      ORRS     r1,r1,r3
        0x00001cea:    6081        .`      STR      r1,[r0,#8]
        0x00001cec:    6881        .h      LDR      r1,[r0,#8]
        0x00001cee:    14c2        ..      ASRS     r2,r0,#19
        0x00001cf0:    4311        .C      ORRS     r1,r1,r2
        0x00001cf2:    6081        .`      STR      r1,[r0,#8]
        0x00001cf4:    6881        .h      LDR      r1,[r0,#8]
        0x00001cf6:    0212        ..      LSLS     r2,r2,#8
        0x00001cf8:    4311        .C      ORRS     r1,r1,r2
        0x00001cfa:    6081        .`      STR      r1,[r0,#8]
        0x00001cfc:    6881        .h      LDR      r1,[r0,#8]
        0x00001cfe:    0242        B.      LSLS     r2,r0,#9
        0x00001d00:    4311        .C      ORRS     r1,r1,r2
        0x00001d02:    6081        .`      STR      r1,[r0,#8]
        0x00001d04:    495c        \I      LDR      r1,[pc,#368] ; [0x1e78] = 0x40140000
        0x00001d06:    688a        .h      LDR      r2,[r1,#8]
        0x00001d08:    431a        .C      ORRS     r2,r2,r3
        0x00001d0a:    608a        .`      STR      r2,[r1,#8]
        0x00001d0c:    688a        .h      LDR      r2,[r1,#8]
        0x00001d0e:    14c6        ..      ASRS     r6,r0,#19
        0x00001d10:    4332        2C      ORRS     r2,r2,r6
        0x00001d12:    608a        .`      STR      r2,[r1,#8]
        0x00001d14:    688a        .h      LDR      r2,[r1,#8]
        0x00001d16:    041e        ..      LSLS     r6,r3,#16
        0x00001d18:    4332        2C      ORRS     r2,r2,r6
        0x00001d1a:    608a        .`      STR      r2,[r1,#8]
        0x00001d1c:    688a        .h      LDR      r2,[r1,#8]
        0x00001d1e:    0246        F.      LSLS     r6,r0,#9
        0x00001d20:    4332        2C      ORRS     r2,r2,r6
        0x00001d22:    608a        .`      STR      r2,[r1,#8]
        0x00001d24:    6802        .h      LDR      r2,[r0,#0]
        0x00001d26:    0a12        ..      LSRS     r2,r2,#8
        0x00001d28:    0212        ..      LSLS     r2,r2,#8
        0x00001d2a:    1c52        R.      ADDS     r2,r2,#1
        0x00001d2c:    6002        .`      STR      r2,[r0,#0]
        0x00001d2e:    6802        .h      LDR      r2,[r0,#0]
        0x00001d30:    0a12        ..      LSRS     r2,r2,#8
        0x00001d32:    0212        ..      LSLS     r2,r2,#8
        0x00001d34:    1c52        R.      ADDS     r2,r2,#1
        0x00001d36:    6002        .`      STR      r2,[r0,#0]
        0x00001d38:    6806        .h      LDR      r6,[r0,#0]
        0x00001d3a:    22ff        ."      MOVS     r2,#0xff
        0x00001d3c:    0212        ..      LSLS     r2,r2,#8
        0x00001d3e:    4396        .C      BICS     r6,r6,r2
        0x00001d40:    36ff        .6      ADDS     r6,r6,#0xff
        0x00001d42:    3601        .6      ADDS     r6,#1
        0x00001d44:    6006        .`      STR      r6,[r0,#0]
        0x00001d46:    6806        .h      LDR      r6,[r0,#0]
        0x00001d48:    4396        .C      BICS     r6,r6,r2
        0x00001d4a:    36ff        .6      ADDS     r6,r6,#0xff
        0x00001d4c:    3601        .6      ADDS     r6,#1
        0x00001d4e:    6006        .`      STR      r6,[r0,#0]
        0x00001d50:    680e        .h      LDR      r6,[r1,#0]
        0x00001d52:    0a36        6.      LSRS     r6,r6,#8
        0x00001d54:    0236        6.      LSLS     r6,r6,#8
        0x00001d56:    1cb6        ..      ADDS     r6,r6,#2
        0x00001d58:    600e        .`      STR      r6,[r1,#0]
        0x00001d5a:    680e        .h      LDR      r6,[r1,#0]
        0x00001d5c:    0a36        6.      LSRS     r6,r6,#8
        0x00001d5e:    0236        6.      LSLS     r6,r6,#8
        0x00001d60:    1cb6        ..      ADDS     r6,r6,#2
        0x00001d62:    600e        .`      STR      r6,[r1,#0]
        0x00001d64:    680e        .h      LDR      r6,[r1,#0]
        0x00001d66:    4396        .C      BICS     r6,r6,r2
        0x00001d68:    36ff        .6      ADDS     r6,r6,#0xff
        0x00001d6a:    36ff        .6      ADDS     r6,r6,#0xff
        0x00001d6c:    3602        .6      ADDS     r6,#2
        0x00001d6e:    600e        .`      STR      r6,[r1,#0]
        0x00001d70:    680e        .h      LDR      r6,[r1,#0]
        0x00001d72:    4396        .C      BICS     r6,r6,r2
        0x00001d74:    36ff        .6      ADDS     r6,r6,#0xff
        0x00001d76:    36ff        .6      ADDS     r6,r6,#0xff
        0x00001d78:    3602        .6      ADDS     r6,#2
        0x00001d7a:    600e        .`      STR      r6,[r1,#0]
        0x00001d7c:    6842        Bh      LDR      r2,[r0,#4]
        0x00001d7e:    08d2        ..      LSRS     r2,r2,#3
        0x00001d80:    00d2        ..      LSLS     r2,r2,#3
        0x00001d82:    1cd2        ..      ADDS     r2,r2,#3
        0x00001d84:    6042        B`      STR      r2,[r0,#4]
        0x00001d86:    6842        Bh      LDR      r2,[r0,#4]
        0x00001d88:    2670        p&      MOVS     r6,#0x70
        0x00001d8a:    43b2        .C      BICS     r2,r2,r6
        0x00001d8c:    3230        02      ADDS     r2,r2,#0x30
        0x00001d8e:    6042        B`      STR      r2,[r0,#4]
        0x00001d90:    6842        Bh      LDR      r2,[r0,#4]
        0x00001d92:    0136        6.      LSLS     r6,r6,#4
        0x00001d94:    43b2        .C      BICS     r2,r2,r6
        0x00001d96:    1912        ..      ADDS     r2,r2,r4
        0x00001d98:    6042        B`      STR      r2,[r0,#4]
        0x00001d9a:    6846        Fh      LDR      r6,[r0,#4]
        0x00001d9c:    2207        ."      MOVS     r2,#7
        0x00001d9e:    0312        ..      LSLS     r2,r2,#12
        0x00001da0:    4396        .C      BICS     r6,r6,r2
        0x00001da2:    1976        v.      ADDS     r6,r6,r5
        0x00001da4:    6046        F`      STR      r6,[r0,#4]
        0x00001da6:    684e        Nh      LDR      r6,[r1,#4]
        0x00001da8:    08f6        ..      LSRS     r6,r6,#3
        0x00001daa:    00f6        ..      LSLS     r6,r6,#3
        0x00001dac:    1cf6        ..      ADDS     r6,r6,#3
        0x00001dae:    604e        N`      STR      r6,[r1,#4]
        0x00001db0:    684e        Nh      LDR      r6,[r1,#4]
        0x00001db2:    2770        p'      MOVS     r7,#0x70
        0x00001db4:    43be        .C      BICS     r6,r6,r7
        0x00001db6:    3630        06      ADDS     r6,r6,#0x30
        0x00001db8:    604e        N`      STR      r6,[r1,#4]
        0x00001dba:    684e        Nh      LDR      r6,[r1,#4]
        0x00001dbc:    1117        ..      ASRS     r7,r2,#4
        0x00001dbe:    43be        .C      BICS     r6,r6,r7
        0x00001dc0:    1934        4.      ADDS     r4,r6,r4
        0x00001dc2:    604c        L`      STR      r4,[r1,#4]
        0x00001dc4:    684c        Lh      LDR      r4,[r1,#4]
        0x00001dc6:    4394        .C      BICS     r4,r4,r2
        0x00001dc8:    1962        b.      ADDS     r2,r4,r5
        0x00001dca:    604a        J`      STR      r2,[r1,#4]
        0x00001dcc:    2200        ."      MOVS     r2,#0
        0x00001dce:    6102        .a      STR      r2,[r0,#0x10]
        0x00001dd0:    61c2        .a      STR      r2,[r0,#0x1c]
        0x00001dd2:    6282        .b      STR      r2,[r0,#0x28]
        0x00001dd4:    6342        Bc      STR      r2,[r0,#0x34]
        0x00001dd6:    610a        .a      STR      r2,[r1,#0x10]
        0x00001dd8:    61ca        .a      STR      r2,[r1,#0x1c]
        0x00001dda:    628a        .b      STR      r2,[r1,#0x28]
        0x00001ddc:    634a        Jc      STR      r2,[r1,#0x34]
        0x00001dde:    1582        ..      ASRS     r2,r0,#22
        0x00001de0:    60c2        .`      STR      r2,[r0,#0xc]
        0x00001de2:    6182        .a      STR      r2,[r0,#0x18]
        0x00001de4:    6242        Bb      STR      r2,[r0,#0x24]
        0x00001de6:    6302        .c      STR      r2,[r0,#0x30]
        0x00001de8:    60ca        .`      STR      r2,[r1,#0xc]
        0x00001dea:    618a        .a      STR      r2,[r1,#0x18]
        0x00001dec:    624a        Jb      STR      r2,[r1,#0x24]
        0x00001dee:    630a        .c      STR      r2,[r1,#0x30]
        0x00001df0:    4a20         J      LDR      r2,[pc,#128] ; [0x1e74] = 0x40040000
        0x00001df2:    3240        @2      ADDS     r2,r2,#0x40
        0x00001df4:    6bd5        .k      LDR      r5,[r2,#0x3c]
        0x00001df6:    2401        .$      MOVS     r4,#1
        0x00001df8:    4325        %C      ORRS     r5,r5,r4
        0x00001dfa:    63d5        .c      STR      r5,[r2,#0x3c]
        0x00001dfc:    6bd6        .k      LDR      r6,[r2,#0x3c]
        0x00001dfe:    2502        .%      MOVS     r5,#2
        0x00001e00:    432e        .C      ORRS     r6,r6,r5
        0x00001e02:    63d6        .c      STR      r6,[r2,#0x3c]
        0x00001e04:    6bd7        .k      LDR      r7,[r2,#0x3c]
        0x00001e06:    2604        .&      MOVS     r6,#4
        0x00001e08:    4337        7C      ORRS     r7,r7,r6
        0x00001e0a:    63d7        .c      STR      r7,[r2,#0x3c]
        0x00001e0c:    6bd7        .k      LDR      r7,[r2,#0x3c]
        0x00001e0e:    431f        .C      ORRS     r7,r7,r3
        0x00001e10:    63d7        .c      STR      r7,[r2,#0x3c]
        0x00001e12:    4a19        .J      LDR      r2,[pc,#100] ; [0x1e78] = 0x40140000
        0x00001e14:    3240        @2      ADDS     r2,r2,#0x40
        0x00001e16:    6bd7        .k      LDR      r7,[r2,#0x3c]
        0x00001e18:    4327        'C      ORRS     r7,r7,r4
        0x00001e1a:    63d7        .c      STR      r7,[r2,#0x3c]
        0x00001e1c:    6bd7        .k      LDR      r7,[r2,#0x3c]
        0x00001e1e:    432f        /C      ORRS     r7,r7,r5
        0x00001e20:    63d7        .c      STR      r7,[r2,#0x3c]
        0x00001e22:    6bd5        .k      LDR      r5,[r2,#0x3c]
        0x00001e24:    4335        5C      ORRS     r5,r5,r6
        0x00001e26:    63d5        .c      STR      r5,[r2,#0x3c]
        0x00001e28:    6bd5        .k      LDR      r5,[r2,#0x3c]
        0x00001e2a:    431d        .C      ORRS     r5,r5,r3
        0x00001e2c:    63d5        .c      STR      r5,[r2,#0x3c]
        0x00001e2e:    6882        .h      LDR      r2,[r0,#8]
        0x00001e30:    4322        "C      ORRS     r2,r2,r4
        0x00001e32:    6082        .`      STR      r2,[r0,#8]
        0x00001e34:    6882        .h      LDR      r2,[r0,#8]
        0x00001e36:    1583        ..      ASRS     r3,r0,#22
        0x00001e38:    431a        .C      ORRS     r2,r2,r3
        0x00001e3a:    6082        .`      STR      r2,[r0,#8]
        0x00001e3c:    6882        .h      LDR      r2,[r0,#8]
        0x00001e3e:    021d        ..      LSLS     r5,r3,#8
        0x00001e40:    432a        *C      ORRS     r2,r2,r5
        0x00001e42:    6082        .`      STR      r2,[r0,#8]
        0x00001e44:    6883        .h      LDR      r3,[r0,#8]
        0x00001e46:    0182        ..      LSLS     r2,r0,#6
        0x00001e48:    4313        .C      ORRS     r3,r3,r2
        0x00001e4a:    6083        .`      STR      r3,[r0,#8]
        0x00001e4c:    6888        .h      LDR      r0,[r1,#8]
        0x00001e4e:    4320         C      ORRS     r0,r0,r4
        0x00001e50:    6088        .`      STR      r0,[r1,#8]
        0x00001e52:    6888        .h      LDR      r0,[r1,#8]
        0x00001e54:    158b        ..      ASRS     r3,r1,#22
        0x00001e56:    4318        .C      ORRS     r0,r0,r3
        0x00001e58:    6088        .`      STR      r0,[r1,#8]
        0x00001e5a:    6888        .h      LDR      r0,[r1,#8]
        0x00001e5c:    4328        (C      ORRS     r0,r0,r5
        0x00001e5e:    6088        .`      STR      r0,[r1,#8]
        0x00001e60:    6888        .h      LDR      r0,[r1,#8]
        0x00001e62:    4310        .C      ORRS     r0,r0,r2
        0x00001e64:    6088        .`      STR      r0,[r1,#8]
        0x00001e66:    bdf8        ..      POP      {r3-r7,pc}
    $d
        0x00001e68:    50746573    setP    DCD    1349805427
        0x00001e6c:    000a4d57    WM..    DCD    675159
        0x00001e70:    50004080    .@.P    DCD    1342193792
        0x00001e74:    40040000    ...@    DCD    1074003968
        0x00001e78:    40140000    ...@    DCD    1075052544
    $t
    i.stackDump
    stackDump
        0x00001e7c:    b510        ..      PUSH     {r4,lr}
        0x00001e7e:    4604        .F      MOV      r4,r0
        0x00001e80:    6801        .h      LDR      r1,[r0,#0]
        0x00001e82:    a010        ..      ADR      r0,{pc}+0x42 ; 0x1ec4
        0x00001e84:    f7fff85c    ..\.    BL       __0printf$8 ; 0xf40
        0x00001e88:    a011        ..      ADR      r0,{pc}+0x48 ; 0x1ed0
        0x00001e8a:    6861        ah      LDR      r1,[r4,#4]
        0x00001e8c:    f7fff858    ..X.    BL       __0printf$8 ; 0xf40
        0x00001e90:    a012        ..      ADR      r0,{pc}+0x4c ; 0x1edc
        0x00001e92:    68a1        .h      LDR      r1,[r4,#8]
        0x00001e94:    f7fff854    ..T.    BL       __0printf$8 ; 0xf40
        0x00001e98:    a013        ..      ADR      r0,{pc}+0x50 ; 0x1ee8
        0x00001e9a:    68e1        .h      LDR      r1,[r4,#0xc]
        0x00001e9c:    f7fff850    ..P.    BL       __0printf$8 ; 0xf40
        0x00001ea0:    a014        ..      ADR      r0,{pc}+0x54 ; 0x1ef4
        0x00001ea2:    6921        !i      LDR      r1,[r4,#0x10]
        0x00001ea4:    f7fff84c    ..L.    BL       __0printf$8 ; 0xf40
        0x00001ea8:    a015        ..      ADR      r0,{pc}+0x58 ; 0x1f00
        0x00001eaa:    6961        ai      LDR      r1,[r4,#0x14]
        0x00001eac:    f7fff848    ..H.    BL       __0printf$8 ; 0xf40
        0x00001eb0:    a016        ..      ADR      r0,{pc}+0x5c ; 0x1f0c
        0x00001eb2:    69a1        .i      LDR      r1,[r4,#0x18]
        0x00001eb4:    f7fff844    ..D.    BL       __0printf$8 ; 0xf40
        0x00001eb8:    a017        ..      ADR      r0,{pc}+0x60 ; 0x1f18
        0x00001eba:    69e1        .i      LDR      r1,[r4,#0x1c]
        0x00001ebc:    f7fff840    ..@.    BL       __0printf$8 ; 0xf40
        0x00001ec0:    bd10        ..      POP      {r4,pc}
    $d
        0x00001ec2:    0000        ..      DCW    0
        0x00001ec4:    20203072    r0      DCD    538980466
        0x00001ec8:    7830203d    = 0x    DCD    2016419901
        0x00001ecc:    000a7825    %x..    DCD    686117
        0x00001ed0:    20203172    r1      DCD    538980722
        0x00001ed4:    7830203d    = 0x    DCD    2016419901
        0x00001ed8:    000a7825    %x..    DCD    686117
        0x00001edc:    20203272    r2      DCD    538980978
        0x00001ee0:    7830203d    = 0x    DCD    2016419901
        0x00001ee4:    000a7825    %x..    DCD    686117
        0x00001ee8:    20203372    r3      DCD    538981234
        0x00001eec:    7830203d    = 0x    DCD    2016419901
        0x00001ef0:    000a7825    %x..    DCD    686117
        0x00001ef4:    20323172    r12     DCD    540160370
        0x00001ef8:    7830203d    = 0x    DCD    2016419901
        0x00001efc:    000a7825    %x..    DCD    686117
        0x00001f00:    2020726c    lr      DCD    538997356
        0x00001f04:    7830203d    = 0x    DCD    2016419901
        0x00001f08:    000a7825    %x..    DCD    686117
        0x00001f0c:    20206370    pc      DCD    538993520
        0x00001f10:    7830203d    = 0x    DCD    2016419901
        0x00001f14:    000a7825    %x..    DCD    686117
        0x00001f18:    20727370    psr     DCD    544371568
        0x00001f1c:    7830203d    = 0x    DCD    2016419901
        0x00001f20:    000a7825    %x..    DCD    686117
        0x00001f24:    00000000    ....    DCD    0
    $d.realdata
    .constdata
    Lg2
        0x00001f28:    9997fa04    ....    DCD    2576873988
        0x00001f2c:    3fd99999    ...?    DCD    1071225241
        0x00001f30:    1d8e78af    .x..    DCD    495876271
        0x00001f34:    3fcc71c5    .q.?    DCD    1070363077
        0x00001f38:    d078c69f    ..x.    DCD    3497576095
        0x00001f3c:    3fc39a09    ...?    DCD    1069783561
    Lg
        0x00001f40:    55555593    .UUU    DCD    1431655827
        0x00001f44:    3fe55555    UU.?    DCD    1071994197
        0x00001f48:    94229359    Y.".    DCD    2485293913
        0x00001f4c:    3fd24924    $I.?    DCD    1070745892
        0x00001f50:    96cb03de    ....    DCD    2529887198
        0x00001f54:    3fc74664    dF.?    DCD    1070024292
        0x00001f58:    df3e5244    DR>.    DCD    3745403460
        0x00001f5c:    3fc2f112    ...?    DCD    1069740306
    .constdata
    __mathlib_zero
        0x00001f60:    00000000    ....    DCD    0
        0x00001f64:    00000000    ....    DCD    0
    Region$$Table$$Base
        0x00001f68:    00001f88    ....    DCD    8072
        0x00001f6c:    20000000    ...     DCD    536870912
        0x00001f70:    00000030    0...    DCD    48
        0x00001f74:    00001092    ....    DCD    4242
        0x00001f78:    00001fb8    ....    DCD    8120
        0x00001f7c:    20000030    0..     DCD    536870960
        0x00001f80:    00000450    P...    DCD    1104
        0x00001f84:    000010a2    ....    DCD    4258
    Region$$Table$$Limit

** Section #2 'ER_RW' (SHT_PROGBITS) [SHF_ALLOC + SHF_WRITE]
    Size   : 48 bytes (alignment 4)
    Address: 0x20000000


** Section #3 'ER_ZI' (SHT_NOBITS) [SHF_ALLOC + SHF_WRITE]
    Size   : 1104 bytes (alignment 8)
    Address: 0x20000030


** Section #4 '.debug_abbrev' (SHT_PROGBITS)
    Size   : 1476 bytes


** Section #5 '.debug_frame' (SHT_PROGBITS)
    Size   : 2228 bytes


** Section #6 '.debug_info' (SHT_PROGBITS)
    Size   : 14808 bytes


** Section #7 '.debug_line' (SHT_PROGBITS)
    Size   : 5076 bytes


** Section #8 '.debug_loc' (SHT_PROGBITS)
    Size   : 1108 bytes


** Section #9 '.debug_macinfo' (SHT_PROGBITS)
    Size   : 62724 bytes


** Section #10 '.debug_pubnames' (SHT_PROGBITS)
    Size   : 1156 bytes


** Section #11 '.symtab' (SHT_SYMTAB)
    Size   : 6832 bytes (alignment 4)
    String table #12 '.strtab'
    Last local symbol no. 246


** Section #12 '.strtab' (SHT_STRTAB)
    Size   : 5172 bytes


** Section #13 '.note' (SHT_NOTE)
    Size   : 28 bytes (alignment 4)


** Section #14 '.comment' (SHT_PROGBITS)
    Size   : 10956 bytes


** Section #15 '.shstrtab' (SHT_STRTAB)
    Size   : 156 bytes


